---
triple:          'arm64-apple-darwin'
binary-path:     '/Users/runner/work/fluidsynth/fluidsynth/build/build-ios-simulator/src/Release-iphonesimulator/FluidSynth.framework/FluidSynth'
relocations:
  - { offset: 0x26, size: 0x8, addend: 0x0, symName: _set_channel_map, symObjAddr: 0x0, symBinAddr: 0xD28, symSize: 0x184 }
  - { offset: 0x4D, size: 0x8, addend: 0x0, symName: _PERF_MODE, symObjAddr: 0xB2A, symBinAddr: 0x4B920, symSize: 0x0 }
  - { offset: 0x263, size: 0x8, addend: 0x0, symName: _set_channel_map, symObjAddr: 0x0, symBinAddr: 0xD28, symSize: 0x184 }
  - { offset: 0x55F, size: 0x8, addend: 0x0, symName: _fluid_core_audio_driver_settings, symObjAddr: 0x184, symBinAddr: 0xEAC, symSize: 0xB4 }
  - { offset: 0x685, size: 0x8, addend: 0x0, symName: _new_fluid_core_audio_driver, symObjAddr: 0x238, symBinAddr: 0xF60, symSize: 0xC }
  - { offset: 0x6DC, size: 0x8, addend: 0x0, symName: _new_fluid_core_audio_driver2, symObjAddr: 0x244, symBinAddr: 0xF6C, symSize: 0x444 }
  - { offset: 0xC9A, size: 0x8, addend: 0x0, symName: _fluid_core_audio_callback, symObjAddr: 0x688, symBinAddr: 0x13B0, symSize: 0xC0 }
  - { offset: 0xD77, size: 0x8, addend: 0x0, symName: _delete_fluid_core_audio_driver, symObjAddr: 0x748, symBinAddr: 0x1470, symSize: 0x3C }
  - { offset: 0x12F1, size: 0x8, addend: 0x0, symName: _setupAVAudioSession, symObjAddr: 0x98, symBinAddr: 0x14AC, symSize: 0x364 }
  - { offset: 0x1816, size: 0x8, addend: 0x0, symName: _fluid_coremidi_driver_settings, symObjAddr: 0x0, symBinAddr: 0x1810, symSize: 0x18 }
  - { offset: 0x1B2E, size: 0x8, addend: 0x0, symName: _fluid_coremidi_driver_settings, symObjAddr: 0x0, symBinAddr: 0x1810, symSize: 0x18 }
  - { offset: 0x1BC9, size: 0x8, addend: 0x0, symName: _new_fluid_coremidi_driver, symObjAddr: 0x18, symBinAddr: 0x1828, symSize: 0x354 }
  - { offset: 0x2232, size: 0x8, addend: 0x0, symName: _fluid_coremidi_autoconnect, symObjAddr: 0x42C, symBinAddr: 0x1C3C, symSize: 0xEC }
  - { offset: 0x2394, size: 0x8, addend: 0x0, symName: _fluid_coremidi_callback, symObjAddr: 0x36C, symBinAddr: 0x1B7C, symSize: 0xC0 }
  - { offset: 0x24EA, size: 0x8, addend: 0x0, symName: _delete_fluid_coremidi_driver, symObjAddr: 0x518, symBinAddr: 0x1D28, symSize: 0x64 }
  - { offset: 0x15B4B, size: 0x8, addend: 0x0, symName: __ZNSt3__111__introsortINS_17_ClassicAlgPolicyERZN14fluid_dls_fontC1EP14_fluid_synth_tP14_fluid_sfont_tPK23_fluid_file_callbacks_tPKcjbEUlRK20fluid_dls_instrumentSE_E_PSC_Lb0EEEvT1_SI_T0_NS_15iterator_traitsISI_E15difference_typeEb, symObjAddr: 0xB894, symBinAddr: 0xD574, symSize: 0x3C8 }
  - { offset: 0x160F7, size: 0x8, addend: 0x0, symName: __ZNSt3__126__insertion_sort_unguardedB8ne190102INS_17_ClassicAlgPolicyERZN14fluid_dls_fontC1EP14_fluid_synth_tP14_fluid_sfont_tPK23_fluid_file_callbacks_tPKcjbEUlRK20fluid_dls_instrumentSE_E_PSC_EEvT1_SI_T0_, symObjAddr: 0xBF3C, symBinAddr: 0xDC1C, symSize: 0x2B4 }
  - { offset: 0x169D8, size: 0x8, addend: 0x0, symName: __ZNSt3__111__sift_downB8ne190102INS_17_ClassicAlgPolicyERZN14fluid_dls_fontC1EP14_fluid_synth_tP14_fluid_sfont_tPK23_fluid_file_callbacks_tPKcjbEUlRK20fluid_dls_instrumentSE_E_PSC_EEvT1_OT0_NS_15iterator_traitsISI_E15difference_typeESI_, symObjAddr: 0xD258, symBinAddr: 0xEF38, symSize: 0x37C }
  - { offset: 0x17424, size: 0x8, addend: 0x0, symName: __ZNSt3__117__floyd_sift_downB8ne190102INS_17_ClassicAlgPolicyERZN14fluid_dls_fontC1EP14_fluid_synth_tP14_fluid_sfont_tPK23_fluid_file_callbacks_tPKcjbEUlRK20fluid_dls_instrumentSE_E_PSC_EET1_SI_OT0_NS_15iterator_traitsISI_E15difference_typeE, symObjAddr: 0xD8D0, symBinAddr: 0xF5B0, symSize: 0x18C }
  - { offset: 0x1791A, size: 0x8, addend: 0x0, symName: __ZNSt3__131__partition_with_equals_on_leftB8ne190102INS_17_ClassicAlgPolicyEP20fluid_dls_instrumentRZN14fluid_dls_fontC1EP14_fluid_synth_tP14_fluid_sfont_tPK23_fluid_file_callbacks_tPKcjbEUlRKS2_SF_E_EET0_SI_SI_T1_, symObjAddr: 0xC34C, symBinAddr: 0xE02C, symSize: 0x360 }
  - { offset: 0x1850D, size: 0x8, addend: 0x0, symName: __ZNSt3__132__partition_with_equals_on_rightB8ne190102INS_17_ClassicAlgPolicyEP20fluid_dls_instrumentRZN14fluid_dls_fontC1EP14_fluid_synth_tP14_fluid_sfont_tPK23_fluid_file_callbacks_tPKcjbEUlRKS2_SF_E_EENS_4pairIT0_bEESJ_SJ_T1_, symObjAddr: 0xC6AC, symBinAddr: 0xE38C, symSize: 0x360 }
  - { offset: 0x190FE, size: 0x8, addend: 0x0, symName: __ZNSt3__127__insertion_sort_incompleteB8ne190102INS_17_ClassicAlgPolicyERZN14fluid_dls_fontC1EP14_fluid_synth_tP14_fluid_sfont_tPK23_fluid_file_callbacks_tPKcjbEUlRK20fluid_dls_instrumentSE_E_PSC_EEbT1_SI_T0_, symObjAddr: 0xCA0C, symBinAddr: 0xE6EC, symSize: 0x40C }
  - { offset: 0x19C0B, size: 0x8, addend: 0x0, symName: __ZNSt3__111__introsortINS_17_ClassicAlgPolicyERZN14fluid_dls_fontC1EP14_fluid_synth_tP14_fluid_sfont_tPK23_fluid_file_callbacks_tPKcjbEUlRK31fluid_dls_instrument_fluid_dataSE_E_PSC_Lb0EEEvT1_SI_T0_NS_15iterator_traitsISI_E15difference_typeEb, symObjAddr: 0xDD00, symBinAddr: 0xF9E0, symSize: 0x6E8 }
  - { offset: 0x1A333, size: 0x8, addend: 0x0, symName: __ZNSt3__111__sift_downB8ne190102INS_17_ClassicAlgPolicyERZN14fluid_dls_fontC1EP14_fluid_synth_tP14_fluid_sfont_tPK23_fluid_file_callbacks_tPKcjbEUlRK31fluid_dls_instrument_fluid_dataSE_E_PSC_EEvT1_OT0_NS_15iterator_traitsISI_E15difference_typeESI_, symObjAddr: 0xF2D0, symBinAddr: 0x10FB0, symSize: 0x218 }
  - { offset: 0x1A492, size: 0x8, addend: 0x0, symName: __ZNSt3__131__partition_with_equals_on_leftB8ne190102INS_17_ClassicAlgPolicyEP31fluid_dls_instrument_fluid_dataRZN14fluid_dls_fontC1EP14_fluid_synth_tP14_fluid_sfont_tPK23_fluid_file_callbacks_tPKcjbEUlRKS2_SF_E_EET0_SI_SI_T1_, symObjAddr: 0xE6C8, symBinAddr: 0x103A8, symSize: 0x240 }
  - { offset: 0x1A68D, size: 0x8, addend: 0x0, symName: __ZNSt3__132__partition_with_equals_on_rightB8ne190102INS_17_ClassicAlgPolicyEP31fluid_dls_instrument_fluid_dataRZN14fluid_dls_fontC1EP14_fluid_synth_tP14_fluid_sfont_tPK23_fluid_file_callbacks_tPKcjbEUlRKS2_SF_E_EENS_4pairIT0_bEESJ_SJ_T1_, symObjAddr: 0xE908, symBinAddr: 0x105E8, symSize: 0x230 }
  - { offset: 0x1A88A, size: 0x8, addend: 0x0, symName: __ZNSt3__127__insertion_sort_incompleteB8ne190102INS_17_ClassicAlgPolicyERZN14fluid_dls_fontC1EP14_fluid_synth_tP14_fluid_sfont_tPK23_fluid_file_callbacks_tPKcjbEUlRK31fluid_dls_instrument_fluid_dataSE_E_PSC_EEbT1_SI_T0_, symObjAddr: 0xEB38, symBinAddr: 0x10818, symSize: 0x300 }
  - { offset: 0x1B859, size: 0x8, addend: 0x0, symName: __ZNSt3__120__throw_length_errorB8ne190102EPKc, symObjAddr: 0x1114, symBinAddr: 0x2E94, symSize: 0x50 }
  - { offset: 0x1B9CD, size: 0x8, addend: 0x0, symName: __ZNSt3__125__throw_bad_function_callB8ne190102Ev, symObjAddr: 0x1CBC, symBinAddr: 0x3A3C, symSize: 0x34 }
  - { offset: 0x1C401, size: 0x8, addend: 0x0, symName: __ZNSt3__134__uninitialized_allocator_relocateB8ne190102INS_9allocatorI20fluid_dls_instrumentEES2_EEvRT_PT0_S7_S7_, symObjAddr: 0x6CAC, symBinAddr: 0x8A18, symSize: 0xF4 }
  - { offset: 0x1C460, size: 0x8, addend: 0x0, symName: __ZNSt3__134__uninitialized_allocator_relocateB8ne190102INS_9allocatorI20fluid_dls_instrumentEES2_EEvRT_PT0_S7_S7_, symObjAddr: 0x6CAC, symBinAddr: 0x8A18, symSize: 0xF4 }
  - { offset: 0x1D2FC, size: 0x8, addend: 0x0, symName: __ZNSt3__120__throw_out_of_rangeB8ne190102EPKc, symObjAddr: 0xB820, symBinAddr: 0xD500, symSize: 0x50 }
  - { offset: 0x1D767, size: 0x8, addend: 0x0, symName: __ZNSt3__17__sort3B8ne190102INS_17_ClassicAlgPolicyERZN14fluid_dls_fontC1EP14_fluid_synth_tP14_fluid_sfont_tPK23_fluid_file_callbacks_tPKcjbEUlRK20fluid_dls_instrumentSE_E_PSC_EEjT1_SI_SI_T0_, symObjAddr: 0xC1F0, symBinAddr: 0xDED0, symSize: 0x15C }
  - { offset: 0x1DA32, size: 0x8, addend: 0x0, symName: __ZNSt3__14swapB8ne190102I20fluid_dls_instrumentEENS_9enable_ifIXaasr21is_move_constructibleIT_EE5valuesr18is_move_assignableIS3_EE5valueEvE4typeERS3_S6_, symObjAddr: 0xCE18, symBinAddr: 0xEAF8, symSize: 0x1E8 }
  - { offset: 0x1E317, size: 0x8, addend: 0x0, symName: __ZNSt3__17__sort5B8ne190102INS_17_ClassicAlgPolicyERZN14fluid_dls_fontC1EP14_fluid_synth_tP14_fluid_sfont_tPK23_fluid_file_callbacks_tPKcjbEUlRK20fluid_dls_instrumentSE_E_PSC_EEvT1_SI_SI_SI_SI_T0_, symObjAddr: 0xD104, symBinAddr: 0xEDE4, symSize: 0x154 }
  - { offset: 0x1E5C5, size: 0x8, addend: 0x0, symName: __ZNSt3__17__sort4B8ne190102INS_17_ClassicAlgPolicyERZN14fluid_dls_fontC1EP14_fluid_synth_tP14_fluid_sfont_tPK23_fluid_file_callbacks_tPKcjbEUlRK20fluid_dls_instrumentSE_E_PSC_EEvT1_SI_SI_SI_T0_, symObjAddr: 0xD000, symBinAddr: 0xECE0, symSize: 0x104 }
  - { offset: 0x1E7E0, size: 0x8, addend: 0x0, symName: __ZNSt3__116__insertion_sortB8ne190102INS_17_ClassicAlgPolicyERZN14fluid_dls_fontC1EP14_fluid_synth_tP14_fluid_sfont_tPK23_fluid_file_callbacks_tPKcjbEUlRK20fluid_dls_instrumentSE_E_PSC_EEvT1_SI_T0_, symObjAddr: 0xBC5C, symBinAddr: 0xD93C, symSize: 0x2E0 }
  - { offset: 0x1F0D8, size: 0x8, addend: 0x0, symName: __ZNSt3__110__pop_heapB8ne190102INS_17_ClassicAlgPolicyEZN14fluid_dls_fontC1EP14_fluid_synth_tP14_fluid_sfont_tPK23_fluid_file_callbacks_tPKcjbEUlRK20fluid_dls_instrumentSE_E_PSC_EEvT1_SH_RT0_NS_15iterator_traitsISH_E15difference_typeE, symObjAddr: 0xD5D4, symBinAddr: 0xF2B4, symSize: 0x2FC }
  - { offset: 0x1FF90, size: 0x8, addend: 0x0, symName: __ZNSt3__19__sift_upB8ne190102INS_17_ClassicAlgPolicyERZN14fluid_dls_fontC1EP14_fluid_synth_tP14_fluid_sfont_tPK23_fluid_file_callbacks_tPKcjbEUlRK20fluid_dls_instrumentSE_E_PSC_EEvT1_SI_OT0_NS_15iterator_traitsISI_E15difference_typeE, symObjAddr: 0xDA5C, symBinAddr: 0xF73C, symSize: 0x2A4 }
  - { offset: 0x20E9C, size: 0x8, addend: 0x0, symName: __ZNSt3__17__sort3B8ne190102INS_17_ClassicAlgPolicyERZN14fluid_dls_fontC1EP14_fluid_synth_tP14_fluid_sfont_tPK23_fluid_file_callbacks_tPKcjbEUlRK31fluid_dls_instrument_fluid_dataSE_E_PSC_EEjT1_SI_SI_T0_, symObjAddr: 0xE3E8, symBinAddr: 0x100C8, symSize: 0x2E0 }
  - { offset: 0x211E9, size: 0x8, addend: 0x0, symName: __ZNSt3__17__sort5B8ne190102INS_17_ClassicAlgPolicyERZN14fluid_dls_fontC1EP14_fluid_synth_tP14_fluid_sfont_tPK23_fluid_file_callbacks_tPKcjbEUlRK31fluid_dls_instrument_fluid_dataSE_E_PSC_EEvT1_SI_SI_SI_SI_T0_, symObjAddr: 0xF034, symBinAddr: 0x10D14, symSize: 0x29C }
  - { offset: 0x214F4, size: 0x8, addend: 0x0, symName: __ZNSt3__17__sort4B8ne190102INS_17_ClassicAlgPolicyERZN14fluid_dls_fontC1EP14_fluid_synth_tP14_fluid_sfont_tPK23_fluid_file_callbacks_tPKcjbEUlRK31fluid_dls_instrument_fluid_dataSE_E_PSC_EEvT1_SI_SI_SI_T0_, symObjAddr: 0xEE38, symBinAddr: 0x10B18, symSize: 0x1FC }
  - { offset: 0x21757, size: 0x8, addend: 0x0, symName: __ZNSt3__110__pop_heapB8ne190102INS_17_ClassicAlgPolicyEZN14fluid_dls_fontC1EP14_fluid_synth_tP14_fluid_sfont_tPK23_fluid_file_callbacks_tPKcjbEUlRK31fluid_dls_instrument_fluid_dataSE_E_PSC_EEvT1_SH_RT0_NS_15iterator_traitsISH_E15difference_typeE, symObjAddr: 0xF4E8, symBinAddr: 0x111C8, symSize: 0x298 }
  - { offset: 0x2355D, size: 0x8, addend: 0x0, symName: __ZSt28__throw_bad_array_new_lengthB8ne190102v, symObjAddr: 0x1188, symBinAddr: 0x2F08, symSize: 0x28 }
  - { offset: 0x23635, size: 0x8, addend: 0x0, symName: __ZSt17throw_with_nestedB8ne190102ISt13runtime_errorEvOT_, symObjAddr: 0x325C, symBinAddr: 0x4FDC, symSize: 0xC }
  - { offset: 0x23662, size: 0x8, addend: 0x0, symName: __ZN14fluid_dls_font10parse_wvplEx, symObjAddr: 0x3268, symBinAddr: 0x4FE8, symSize: 0x24C }
  - { offset: 0x23882, size: 0x8, addend: 0x0, symName: __ZL21DLSID_ManufacturersID, symObjAddr: 0x10D18, symBinAddr: 0x4BA18, symSize: 0x0 }
  - { offset: 0x2389D, size: 0x8, addend: 0x0, symName: __ZL15DLSID_ProductID, symObjAddr: 0x10D28, symBinAddr: 0x4BA28, symSize: 0x0 }
  - { offset: 0x238B8, size: 0x8, addend: 0x0, symName: __ZL24DLSID_SamplePlaybackRate, symObjAddr: 0x10D38, symBinAddr: 0x4BA38, symSize: 0x0 }
  - { offset: 0x276E4, size: 0x8, addend: 0x0, symName: __Z30add_dls_connectionblock_to_artR22fluid_dls_articulationttd12DLSTransformt, symObjAddr: 0x0, symBinAddr: 0x1D8C, symSize: 0x480 }
  - { offset: 0x278F9, size: 0x8, addend: 0x0, symName: __ZN22fluid_dls_articulation7add_modERK12_fluid_mod_t, symObjAddr: 0x480, symBinAddr: 0x220C, symSize: 0x1AC }
  - { offset: 0x2816C, size: 0x8, addend: 0x0, symName: __ZNKSt3__16vectorI12_fluid_mod_tNS_9allocatorIS1_EEE20__throw_length_errorB8ne190102Ev, symObjAddr: 0x10F0, symBinAddr: 0x2E70, symSize: 0x14 }
  - { offset: 0x28195, size: 0x8, addend: 0x0, symName: ___clang_call_terminate, symObjAddr: 0x1104, symBinAddr: 0x2E84, symSize: 0x10 }
  - { offset: 0x282EC, size: 0x8, addend: 0x0, symName: __Z34convert_dls_connectionblock_to_artR22fluid_dls_articulationtttti, symObjAddr: 0x638, symBinAddr: 0x23B8, symSize: 0x424 }
  - { offset: 0x28767, size: 0x8, addend: 0x0, symName: __ZL27convert_dls_mod_dest_to_gent, symObjAddr: 0xA5C, symBinAddr: 0x27DC, symSize: 0x2B8 }
  - { offset: 0x28798, size: 0x8, addend: 0x0, symName: _new_fluid_dls_loader, symObjAddr: 0xD14, symBinAddr: 0x2A94, symSize: 0x9C }
  - { offset: 0x28AC4, size: 0x8, addend: 0x0, symName: __ZL21fluid_dls_loader_loadP17_fluid_sfloader_tPKc, symObjAddr: 0xDB0, symBinAddr: 0x2B30, symSize: 0x30C }
  - { offset: 0x28EFE, size: 0x8, addend: 0x0, symName: __ZN14fluid_dls_fontC2EP14_fluid_synth_tP14_fluid_sfont_tPK23_fluid_file_callbacks_tPKcjb, symObjAddr: 0x1D1C, symBinAddr: 0x3A9C, symSize: 0x1070 }
  - { offset: 0x2B9B1, size: 0x8, addend: 0x0, symName: __ZL13log_exceptioniRKSt9exceptioni, symObjAddr: 0x15D0, symBinAddr: 0x3350, symSize: 0x210 }
  - { offset: 0x2C279, size: 0x8, addend: 0x0, symName: __ZL23fluid_dls_loader_deleteP17_fluid_sfloader_t, symObjAddr: 0x10BC, symBinAddr: 0x2E3C, symSize: 0x34 }
  - { offset: 0x2C2DD, size: 0x8, addend: 0x0, symName: __ZNSt12length_errorC1B8ne190102EPKc, symObjAddr: 0x1164, symBinAddr: 0x2EE4, symSize: 0x24 }
  - { offset: 0x2C3DE, size: 0x8, addend: 0x0, symName: __ZL24fluid_dls_sfont_get_nameP14_fluid_sfont_t, symObjAddr: 0x11B0, symBinAddr: 0x2F30, symSize: 0x34 }
  - { offset: 0x2C53C, size: 0x8, addend: 0x0, symName: __ZL26fluid_dls_sfont_get_presetP14_fluid_sfont_tii, symObjAddr: 0x11E4, symBinAddr: 0x2F64, symSize: 0x1F4 }
  - { offset: 0x2C794, size: 0x8, addend: 0x0, symName: __ZL25fluid_dls_iteration_startP14_fluid_sfont_t, symObjAddr: 0x13D8, symBinAddr: 0x3158, symSize: 0x20 }
  - { offset: 0x2C86B, size: 0x8, addend: 0x0, symName: __ZL24fluid_dls_iteration_nextP14_fluid_sfont_t, symObjAddr: 0x13F8, symBinAddr: 0x3178, symSize: 0x40 }
  - { offset: 0x2C9F4, size: 0x8, addend: 0x0, symName: __ZL22fluid_dls_sfont_deleteP14_fluid_sfont_t, symObjAddr: 0x1438, symBinAddr: 0x31B8, symSize: 0xCC }
  - { offset: 0x2CB6A, size: 0x8, addend: 0x0, symName: __ZN14fluid_dls_fontD2Ev, symObjAddr: 0x17E0, symBinAddr: 0x3560, symSize: 0x22C }
  - { offset: 0x2E035, size: 0x8, addend: 0x0, symName: __ZL28fluid_dls_preset_get_banknumP15_fluid_preset_t, symObjAddr: 0x1504, symBinAddr: 0x3284, symSize: 0xCC }
  - { offset: 0x2F132, size: 0x8, addend: 0x0, symName: __ZN14fluid_dls_fontD2Ev.cold.1, symObjAddr: 0xF794, symBinAddr: 0x4AAA0, symSize: 0x14 }
  - { offset: 0x2F14E, size: 0x8, addend: 0x0, symName: __ZN14fluid_dls_fontD2Ev.cold.1, symObjAddr: 0xF794, symBinAddr: 0x4AAA0, symSize: 0x14 }
  - { offset: 0x2F16E, size: 0x8, addend: 0x0, symName: __ZN14fluid_dls_fontD2Ev.cold.1, symObjAddr: 0xF794, symBinAddr: 0x4AAA0, symSize: 0x14 }
  - { offset: 0x2F18E, size: 0x8, addend: 0x0, symName: __ZN14fluid_dls_fontD2Ev.cold.1, symObjAddr: 0xF794, symBinAddr: 0x4AAA0, symSize: 0x14 }
  - { offset: 0x2F266, size: 0x8, addend: 0x0, symName: __ZNSt3__16vectorI20fluid_dls_instrumentNS_9allocatorIS1_EEED1B8ne190102Ev, symObjAddr: 0x1A0C, symBinAddr: 0x378C, symSize: 0x90 }
  - { offset: 0x2F819, size: 0x8, addend: 0x0, symName: __ZNSt3__16vectorI22fluid_dls_articulationNS_9allocatorIS1_EEED1B8ne190102Ev, symObjAddr: 0x1A9C, symBinAddr: 0x381C, symSize: 0x70 }
  - { offset: 0x2FB32, size: 0x8, addend: 0x0, symName: __ZNSt3__16vectorI16fluid_dls_sampleNS_9allocatorIS1_EEED1B8ne190102Ev, symObjAddr: 0x1B0C, symBinAddr: 0x388C, symSize: 0x70 }
  - { offset: 0x2FE0B, size: 0x8, addend: 0x0, symName: __ZN11mlock_guardD1Ev, symObjAddr: 0x1B7C, symBinAddr: 0x38FC, symSize: 0x48 }
  - { offset: 0x2FE6B, size: 0x8, addend: 0x0, symName: __ZN11scope_guardINSt3__18functionIFvvEEEED1Ev, symObjAddr: 0x1BC4, symBinAddr: 0x3944, symSize: 0x98 }
  - { offset: 0x2FFFB, size: 0x8, addend: 0x0, symName: __ZN20fluid_dls_instrumentD1Ev, symObjAddr: 0x1C5C, symBinAddr: 0x39DC, symSize: 0x60 }
  - { offset: 0x30489, size: 0x8, addend: 0x0, symName: __ZNSt3__117bad_function_callD1Ev, symObjAddr: 0x1CF0, symBinAddr: 0x3A70, symSize: 0x4 }
  - { offset: 0x304AD, size: 0x8, addend: 0x0, symName: __ZNSt3__117bad_function_callD1Ev, symObjAddr: 0x1CF0, symBinAddr: 0x3A70, symSize: 0x4 }
  - { offset: 0x304E2, size: 0x8, addend: 0x0, symName: __ZNSt3__117bad_function_callD0Ev, symObjAddr: 0x1CF4, symBinAddr: 0x3A74, symSize: 0x14 }
  - { offset: 0x30547, size: 0x8, addend: 0x0, symName: __ZNKSt3__112basic_stringIcNS_11char_traitsIcEENS_9allocatorIcEEE20__throw_length_errorB8ne190102Ev, symObjAddr: 0x1D08, symBinAddr: 0x3A88, symSize: 0x14 }
  - { offset: 0x30570, size: 0x8, addend: 0x0, symName: __ZN14fluid_dls_fontC2EP14_fluid_synth_tP14_fluid_sfont_tPK23_fluid_file_callbacks_tPKcjb, symObjAddr: 0x1D1C, symBinAddr: 0x3A9C, symSize: 0x1070 }
  - { offset: 0x3157E, size: 0x8, addend: 0x0, symName: __ZN14fluid_dls_font15visit_subchunksIZNS_C1EP14_fluid_synth_tP14_fluid_sfont_tPK23_fluid_file_callbacks_tPKcjbEUl9RIFFChunkixE_EENSt3__19enable_ifIXsr3stdE14is_invocable_vIT_SA_ixEESA_E4typeExjOSE_, symObjAddr: 0x2EC0, symBinAddr: 0x4C40, symSize: 0x39C }
  - { offset: 0x31AB4, size: 0x8, addend: 0x0, symName: __ZN14fluid_dls_font10parse_wvplEx, symObjAddr: 0x3268, symBinAddr: 0x4FE8, symSize: 0x24C }
  - { offset: 0x31F00, size: 0x8, addend: 0x0, symName: __ZN14fluid_dls_font15visit_subchunksIZNS_10parse_linsExEUl9RIFFChunkixE_EENSt3__19enable_ifIXsr3stdE14is_invocable_vIT_S1_ixEES1_E4typeExjOS5_, symObjAddr: 0x8858, symBinAddr: 0xA588, symSize: 0x39C }
  - { offset: 0x32436, size: 0x8, addend: 0x0, symName: __ZN14fluid_dls_font10parse_pgalExi, symObjAddr: 0x34B4, symBinAddr: 0x5234, symSize: 0x614 }
  - { offset: 0x32CF5, size: 0x8, addend: 0x0, symName: __ZNSt3__16vectorIN20fluid_dls_instrument26fluid_dls_instrument_aliasENS_9allocatorIS2_EEE13shrink_to_fitEv, symObjAddr: 0x3E6C, symBinAddr: 0x5BEC, symSize: 0xD4 }
  - { offset: 0x32FD9, size: 0x8, addend: 0x0, symName: __ZNKSt3__16vectorI16fluid_dls_sampleNS_9allocatorIS1_EEE20__throw_out_of_rangeB8ne190102Ev, symObjAddr: 0xB80C, symBinAddr: 0xD4EC, symSize: 0x14 }
  - { offset: 0x33002, size: 0x8, addend: 0x0, symName: __ZNSt3__120__throw_out_of_rangeB8ne190102EPKc, symObjAddr: 0xB820, symBinAddr: 0xD500, symSize: 0x50 }
  - { offset: 0x33024, size: 0x8, addend: 0x0, symName: __ZN14fluid_dls_fontD2Ev.cold.1, symObjAddr: 0xF794, symBinAddr: 0x4AAA0, symSize: 0x14 }
  - { offset: 0x33046, size: 0x8, addend: 0x0, symName: __ZNKSt3__16vectorI16fluid_dls_sampleNS_9allocatorIS1_EEE20__throw_out_of_rangeB8ne190102Ev, symObjAddr: 0xB80C, symBinAddr: 0xD4EC, symSize: 0x14 }
  - { offset: 0x33051, size: 0x8, addend: 0x0, symName: __ZL13string_formatILm25EJPKcEENSt3__112basic_stringIcNS2_11char_traitsIcEENS2_9allocatorIcEEEERAT__S0_DpT0_, symObjAddr: 0x2D8C, symBinAddr: 0x4B0C, symSize: 0x134 }
  - { offset: 0x333F6, size: 0x8, addend: 0x0, symName: __ZL9READCHUNKP14fluid_dls_fontR9RIFFChunk, symObjAddr: 0x4038, symBinAddr: 0x5DB8, symSize: 0x1DC }
  - { offset: 0x33489, size: 0x8, addend: 0x0, symName: __ZZN14fluid_dls_fontC1EP14_fluid_synth_tP14_fluid_sfont_tPK23_fluid_file_callbacks_tPKcjbENKUl9RIFFChunkixE_clES9_ix, symObjAddr: 0x46B4, symBinAddr: 0x6434, symSize: 0x51C }
  - { offset: 0x338E4, size: 0x8, addend: 0x0, symName: __ZL13string_formatILm40EJccccEENSt3__112basic_stringIcNS0_11char_traitsIcEENS0_9allocatorIcEEEERAT__KcDpT0_, symObjAddr: 0x4214, symBinAddr: 0x5F94, symSize: 0x160 }
  - { offset: 0x33C2E, size: 0x8, addend: 0x0, symName: __ZL13string_formatILm50EJccccccccEENSt3__112basic_stringIcNS0_11char_traitsIcEENS0_9allocatorIcEEEERAT__KcDpT0_, symObjAddr: 0x4514, symBinAddr: 0x6294, symSize: 0x1A0 }
  - { offset: 0x33FCC, size: 0x8, addend: 0x0, symName: __ZL13string_formatILm44EJccccccccEENSt3__112basic_stringIcNS0_11char_traitsIcEENS0_9allocatorIcEEEERAT__KcDpT0_, symObjAddr: 0x4374, symBinAddr: 0x60F4, symSize: 0x1A0 }
  - { offset: 0x3436A, size: 0x8, addend: 0x0, symName: __ZL13string_formatILm63EJccccyPKcccccyEENSt3__112basic_stringIcNS2_11char_traitsIcEENS2_9allocatorIcEEEERAT__S0_DpT0_, symObjAddr: 0x4BD0, symBinAddr: 0x6950, symSize: 0x1C4 }
  - { offset: 0x34747, size: 0x8, addend: 0x0, symName: __ZNSt19__throw_with_nestedISt13runtime_errorS0_Lb1EE10__do_throwB8ne190102EOS0_, symObjAddr: 0x6EEC, symBinAddr: 0x8C30, symSize: 0x50 }
  - { offset: 0x3496C, size: 0x8, addend: 0x0, symName: __ZNSt3__16vectorI16fluid_dls_sampleNS_9allocatorIS1_EEE24__emplace_back_slow_pathIJEEEPS1_DpOT_, symObjAddr: 0x7154, symBinAddr: 0x8E98, symSize: 0x13C }
  - { offset: 0x3509D, size: 0x8, addend: 0x0, symName: __ZN14fluid_dls_font15visit_subchunksIZNS_10parse_waveExR16fluid_dls_sampleEUl9RIFFChunkixE_EENSt3__19enable_ifIXsr3stdE14is_invocable_vIT_S3_ixEES3_E4typeExjOS7_, symObjAddr: 0x7290, symBinAddr: 0x8FD4, symSize: 0x39C }
  - { offset: 0x350BA, size: 0x8, addend: 0x0, symName: __ZN14fluid_dls_font15visit_subchunksIZNS_10parse_waveExR16fluid_dls_sampleEUl9RIFFChunkixE_EENSt3__19enable_ifIXsr3stdE14is_invocable_vIT_S3_ixEES3_E4typeExjOS7_, symObjAddr: 0x7290, symBinAddr: 0x8FD4, symSize: 0x39C }
  - { offset: 0x355F0, size: 0x8, addend: 0x0, symName: __ZL13string_formatILm74EJxjEENSt3__112basic_stringIcNS0_11char_traitsIcEENS0_9allocatorIcEEEERAT__KcDpT0_, symObjAddr: 0x701C, symBinAddr: 0x8D60, symSize: 0x138 }
  - { offset: 0x35C67, size: 0x8, addend: 0x0, symName: __ZL13string_formatILm38EJiEENSt3__112basic_stringIcNS0_11char_traitsIcEENS0_9allocatorIcEEEERAT__KcDpT0_, symObjAddr: 0xB6B0, symBinAddr: 0xD3B8, symSize: 0x134 }
  - { offset: 0x35F6F, size: 0x8, addend: 0x0, symName: __ZL25fluid_dls_preset_get_nameP15_fluid_preset_t, symObjAddr: 0x3AC8, symBinAddr: 0x5848, symSize: 0x34 }
  - { offset: 0x3603E, size: 0x8, addend: 0x0, symName: __ZL24fluid_dls_preset_get_numP15_fluid_preset_t, symObjAddr: 0x3AFC, symBinAddr: 0x587C, symSize: 0x1C }
  - { offset: 0x36084, size: 0x8, addend: 0x0, symName: __ZL23fluid_dls_preset_noteonP15_fluid_preset_tP14_fluid_synth_tiii, symObjAddr: 0x3B18, symBinAddr: 0x5898, symSize: 0x350 }
  - { offset: 0x365CE, size: 0x8, addend: 0x0, symName: __ZL21fluid_dls_preset_freeP15_fluid_preset_t, symObjAddr: 0x3E68, symBinAddr: 0x5BE8, symSize: 0x4 }
  - { offset: 0x365F7, size: 0x8, addend: 0x0, symName: __ZNSt3__110__function6__funcIN14fluid_dls_font12on_file_exitMUlvE_ENS_9allocatorIS3_EEFvvEED1Ev, symObjAddr: 0x3F40, symBinAddr: 0x5CC0, symSize: 0x4 }
  - { offset: 0x36622, size: 0x8, addend: 0x0, symName: __ZNSt3__110__function6__funcIN14fluid_dls_font12on_file_exitMUlvE_ENS_9allocatorIS3_EEFvvEED0Ev, symObjAddr: 0x3F44, symBinAddr: 0x5CC4, symSize: 0x4 }
  - { offset: 0x367F1, size: 0x8, addend: 0x0, symName: __ZNKSt3__110__function6__funcIN14fluid_dls_font12on_file_exitMUlvE_ENS_9allocatorIS3_EEFvvEE7__cloneEv, symObjAddr: 0x3F48, symBinAddr: 0x5CC8, symSize: 0x34 }
  - { offset: 0x36996, size: 0x8, addend: 0x0, symName: __ZNKSt3__110__function6__funcIN14fluid_dls_font12on_file_exitMUlvE_ENS_9allocatorIS3_EEFvvEE7__cloneEPNS0_6__baseIS6_EE, symObjAddr: 0x3F7C, symBinAddr: 0x5CFC, symSize: 0x14 }
  - { offset: 0x369C2, size: 0x8, addend: 0x0, symName: __ZNKSt3__110__function6__funcIN14fluid_dls_font12on_file_exitMUlvE_ENS_9allocatorIS3_EEFvvEE7__cloneEPNS0_6__baseIS6_EE, symObjAddr: 0x3F7C, symBinAddr: 0x5CFC, symSize: 0x14 }
  - { offset: 0x369F4, size: 0x8, addend: 0x0, symName: __ZNKSt3__110__function6__funcIN14fluid_dls_font12on_file_exitMUlvE_ENS_9allocatorIS3_EEFvvEE7__cloneEPNS0_6__baseIS6_EE, symObjAddr: 0x3F7C, symBinAddr: 0x5CFC, symSize: 0x14 }
  - { offset: 0x36A26, size: 0x8, addend: 0x0, symName: __ZNKSt3__110__function6__funcIN14fluid_dls_font12on_file_exitMUlvE_ENS_9allocatorIS3_EEFvvEE7__cloneEPNS0_6__baseIS6_EE, symObjAddr: 0x3F7C, symBinAddr: 0x5CFC, symSize: 0x14 }
  - { offset: 0x36A3C, size: 0x8, addend: 0x0, symName: __ZNKSt3__110__function6__funcIN14fluid_dls_font12on_file_exitMUlvE_ENS_9allocatorIS3_EEFvvEE7__cloneEPNS0_6__baseIS6_EE, symObjAddr: 0x3F7C, symBinAddr: 0x5CFC, symSize: 0x14 }
  - { offset: 0x36A51, size: 0x8, addend: 0x0, symName: __ZNKSt3__110__function6__funcIN14fluid_dls_font12on_file_exitMUlvE_ENS_9allocatorIS3_EEFvvEE7__cloneEPNS0_6__baseIS6_EE, symObjAddr: 0x3F7C, symBinAddr: 0x5CFC, symSize: 0x14 }
  - { offset: 0x36A66, size: 0x8, addend: 0x0, symName: __ZNKSt3__110__function6__funcIN14fluid_dls_font12on_file_exitMUlvE_ENS_9allocatorIS3_EEFvvEE7__cloneEPNS0_6__baseIS6_EE, symObjAddr: 0x3F7C, symBinAddr: 0x5CFC, symSize: 0x14 }
  - { offset: 0x36A7B, size: 0x8, addend: 0x0, symName: __ZNKSt3__110__function6__funcIN14fluid_dls_font12on_file_exitMUlvE_ENS_9allocatorIS3_EEFvvEE7__cloneEPNS0_6__baseIS6_EE, symObjAddr: 0x3F7C, symBinAddr: 0x5CFC, symSize: 0x14 }
  - { offset: 0x36A93, size: 0x8, addend: 0x0, symName: __ZNSt3__110__function6__funcIN14fluid_dls_font12on_file_exitMUlvE_ENS_9allocatorIS3_EEFvvEE7destroyEv, symObjAddr: 0x3F90, symBinAddr: 0x5D10, symSize: 0x4 }
  - { offset: 0x36AE6, size: 0x8, addend: 0x0, symName: __ZNSt3__110__function6__funcIN14fluid_dls_font12on_file_exitMUlvE_ENS_9allocatorIS3_EEFvvEE18destroy_deallocateEv, symObjAddr: 0x3F94, symBinAddr: 0x5D14, symSize: 0x4 }
  - { offset: 0x36B1B, size: 0x8, addend: 0x0, symName: __ZNSt3__110__function6__funcIN14fluid_dls_font12on_file_exitMUlvE_ENS_9allocatorIS3_EEFvvEE18destroy_deallocateEv, symObjAddr: 0x3F94, symBinAddr: 0x5D14, symSize: 0x4 }
  - { offset: 0x36B40, size: 0x8, addend: 0x0, symName: __ZNSt3__110__function6__funcIN14fluid_dls_font12on_file_exitMUlvE_ENS_9allocatorIS3_EEFvvEE18destroy_deallocateEv, symObjAddr: 0x3F94, symBinAddr: 0x5D14, symSize: 0x4 }
  - { offset: 0x36B6F, size: 0x8, addend: 0x0, symName: __ZNSt3__110__function6__funcIN14fluid_dls_font12on_file_exitMUlvE_ENS_9allocatorIS3_EEFvvEE18destroy_deallocateEv, symObjAddr: 0x3F94, symBinAddr: 0x5D14, symSize: 0x4 }
  - { offset: 0x36B98, size: 0x8, addend: 0x0, symName: __ZNSt3__110__function6__funcIN14fluid_dls_font12on_file_exitMUlvE_ENS_9allocatorIS3_EEFvvEE18destroy_deallocateEv, symObjAddr: 0x3F94, symBinAddr: 0x5D14, symSize: 0x4 }
  - { offset: 0x36C17, size: 0x8, addend: 0x0, symName: __ZNSt3__110__function6__funcIN14fluid_dls_font12on_file_exitMUlvE_ENS_9allocatorIS3_EEFvvEEclEv, symObjAddr: 0x3F98, symBinAddr: 0x5D18, symSize: 0x30 }
  - { offset: 0x36CCA, size: 0x8, addend: 0x0, symName: __ZNKSt3__110__function6__funcIN14fluid_dls_font12on_file_exitMUlvE_ENS_9allocatorIS3_EEFvvEE6targetERKSt9type_info, symObjAddr: 0x3FC8, symBinAddr: 0x5D48, symSize: 0x64 }
  - { offset: 0x36D87, size: 0x8, addend: 0x0, symName: __ZNKSt3__110__function6__funcIN14fluid_dls_font12on_file_exitMUlvE_ENS_9allocatorIS3_EEFvvEE11target_typeEv, symObjAddr: 0x402C, symBinAddr: 0x5DAC, symSize: 0xC }
  - { offset: 0x36E31, size: 0x8, addend: 0x0, symName: __ZN14fluid_dls_font27read_name_from_info_entriesExj, symObjAddr: 0x64F4, symBinAddr: 0x8274, symSize: 0x204 }
  - { offset: 0x372EC, size: 0x8, addend: 0x0, symName: __ZNSt3__16vectorI20fluid_dls_instrumentNS_9allocatorIS1_EEE7reserveEm, symObjAddr: 0x6320, symBinAddr: 0x80A0, symSize: 0xCC }
  - { offset: 0x37687, size: 0x8, addend: 0x0, symName: __ZNSt3__16vectorIjNS_9allocatorIjEEE8__appendEm, symObjAddr: 0x6DA0, symBinAddr: 0x8B0C, symSize: 0x124 }
  - { offset: 0x37ACF, size: 0x8, addend: 0x0, symName: __ZN14fluid_dls_font12execute_cdlsExi, symObjAddr: 0x4D94, symBinAddr: 0x6B14, symSize: 0x158C }
  - { offset: 0x3826F, size: 0x8, addend: 0x0, symName: __ZNSt3__16vectorI16fluid_dls_sampleNS_9allocatorIS1_EEE7reserveEm, symObjAddr: 0x63EC, symBinAddr: 0x816C, symSize: 0x108 }
  - { offset: 0x38864, size: 0x8, addend: 0x0, symName: __ZN14fluid_dls_font27read_name_from_info_entriesExj, symObjAddr: 0x64F4, symBinAddr: 0x8274, symSize: 0x204 }
  - { offset: 0x3894A, size: 0x8, addend: 0x0, symName: __ZN14fluid_dls_font16eval_dlsid_queryERK5DLSID, symObjAddr: 0x66F8, symBinAddr: 0x8478, symSize: 0x268 }
  - { offset: 0x38D0B, size: 0x8, addend: 0x0, symName: __ZL13string_formatILm41EJiEENSt3__112basic_stringIcNS0_11char_traitsIcEENS0_9allocatorIcEEEERAT__KcDpT0_, symObjAddr: 0x6960, symBinAddr: 0x86E0, symSize: 0x134 }
  - { offset: 0x39013, size: 0x8, addend: 0x0, symName: __ZL13string_formatILm26EJtEENSt3__112basic_stringIcNS0_11char_traitsIcEENS0_9allocatorIcEEEERAT__KcDpT0_, symObjAddr: 0x6A94, symBinAddr: 0x8814, symSize: 0x134 }
  - { offset: 0x39523, size: 0x8, addend: 0x0, symName: __ZNSt3__114__split_bufferI20fluid_dls_instrumentRNS_9allocatorIS1_EEED1Ev, symObjAddr: 0x6C28, symBinAddr: 0x8994, symSize: 0x84 }
  - { offset: 0x3952E, size: 0x8, addend: 0x0, symName: __ZNSt3__114__split_bufferI20fluid_dls_instrumentRNS_9allocatorIS1_EEED1Ev, symObjAddr: 0x6C28, symBinAddr: 0x8994, symSize: 0x84 }
  - { offset: 0x39D34, size: 0x8, addend: 0x0, symName: __ZNSt19__throw_with_nestedISt13runtime_errorS0_Lb1EE10__do_throwB8ne190102EOS0_, symObjAddr: 0x6EEC, symBinAddr: 0x8C30, symSize: 0x50 }
  - { offset: 0x39F20, size: 0x8, addend: 0x0, symName: __ZeqRK5DLSIDS1_, symObjAddr: 0x6BC8, symBinAddr: 0x8948, symSize: 0x4C }
  - { offset: 0x3A4D1, size: 0x8, addend: 0x0, symName: __ZNSt8__nestedISt13runtime_errorEC1B8ne190102ERKS0_, symObjAddr: 0x6F3C, symBinAddr: 0x8C80, symSize: 0x40 }
  - { offset: 0x3A57C, size: 0x8, addend: 0x0, symName: __ZNSt8__nestedISt13runtime_errorED1Ev, symObjAddr: 0x6F7C, symBinAddr: 0x8CC0, symSize: 0x28 }
  - { offset: 0x3A5DB, size: 0x8, addend: 0x0, symName: __ZNSt8__nestedISt13runtime_errorED0Ev, symObjAddr: 0x6FA4, symBinAddr: 0x8CE8, symSize: 0x2C }
  - { offset: 0x3A63A, size: 0x8, addend: 0x0, symName: __ZThn16_NSt8__nestedISt13runtime_errorED1Ev, symObjAddr: 0x6FD0, symBinAddr: 0x8D14, symSize: 0x24 }
  - { offset: 0x3A6AC, size: 0x8, addend: 0x0, symName: __ZThn16_NSt8__nestedISt13runtime_errorED0Ev, symObjAddr: 0x6FF4, symBinAddr: 0x8D38, symSize: 0x28 }
  - { offset: 0x3A76B, size: 0x8, addend: 0x0, symName: __ZZN14fluid_dls_font10parse_waveExR16fluid_dls_sampleENKUl9RIFFChunkixE_clES2_ix, symObjAddr: 0x762C, symBinAddr: 0x9370, symSize: 0x930 }
  - { offset: 0x3B018, size: 0x8, addend: 0x0, symName: __ZNSt3__16vectorIsNS_9allocatorIsEEE8__appendEm, symObjAddr: 0x872C, symBinAddr: 0xA470, symSize: 0x118 }
  - { offset: 0x3B460, size: 0x8, addend: 0x0, symName: __ZN14fluid_dls_font10parse_wsmpExR14fluid_dls_wsmp, symObjAddr: 0x82F8, symBinAddr: 0xA03C, symSize: 0x434 }
  - { offset: 0x3B74D, size: 0x8, addend: 0x0, symName: __ZL13string_formatILm48EJtEENSt3__112basic_stringIcNS0_11char_traitsIcEENS0_9allocatorIcEEEERAT__KcDpT0_, symObjAddr: 0x7F5C, symBinAddr: 0x9CA0, symSize: 0x134 }
  - { offset: 0x3BA55, size: 0x8, addend: 0x0, symName: __ZL13string_formatILm34EJtEENSt3__112basic_stringIcNS0_11char_traitsIcEENS0_9allocatorIcEEEERAT__KcDpT0_, symObjAddr: 0x8090, symBinAddr: 0x9DD4, symSize: 0x134 }
  - { offset: 0x3BD5D, size: 0x8, addend: 0x0, symName: __ZL13string_formatILm36EJtEENSt3__112basic_stringIcNS0_11char_traitsIcEENS0_9allocatorIcEEEERAT__KcDpT0_, symObjAddr: 0x81C4, symBinAddr: 0x9F08, symSize: 0x134 }
  - { offset: 0x3C332, size: 0x8, addend: 0x0, symName: __ZN14fluid_dls_font15visit_subchunksIZNS_10parse_linsExEUl9RIFFChunkixE_EENSt3__19enable_ifIXsr3stdE14is_invocable_vIT_S1_ixEES1_E4typeExjOS5_, symObjAddr: 0x8858, symBinAddr: 0xA588, symSize: 0x39C }
  - { offset: 0x3C348, size: 0x8, addend: 0x0, symName: __ZZN14fluid_dls_font10parse_linsExENKUl9RIFFChunkixE_clES0_ix, symObjAddr: 0x8BF4, symBinAddr: 0xA924, symSize: 0x148 }
  - { offset: 0x3C7BC, size: 0x8, addend: 0x0, symName: __ZNSt3__16vectorI20fluid_dls_instrumentNS_9allocatorIS1_EEE24__emplace_back_slow_pathIJEEEPS1_DpOT_, symObjAddr: 0x8D3C, symBinAddr: 0xAA6C, symSize: 0x114 }
  - { offset: 0x3CC45, size: 0x8, addend: 0x0, symName: __ZN14fluid_dls_font15visit_subchunksIZNS_9parse_insExR20fluid_dls_instrumentEUl9RIFFChunkixE_EENSt3__19enable_ifIXsr3stdE14is_invocable_vIT_S3_ixEES3_E4typeExjOS7_, symObjAddr: 0x8E50, symBinAddr: 0xAB80, symSize: 0x39C }
  - { offset: 0x3D1C8, size: 0x8, addend: 0x0, symName: __ZZN14fluid_dls_font9parse_insExR20fluid_dls_instrumentENKUl9RIFFChunkixE_clES2_ix, symObjAddr: 0x91EC, symBinAddr: 0xAF1C, symSize: 0x4C8 }
  - { offset: 0x3DD59, size: 0x8, addend: 0x0, symName: __ZN14fluid_dls_font15visit_subchunksIZNS_10parse_lartExR22fluid_dls_articulationEUl9RIFFChunkixE_EENSt3__19enable_ifIXsr3stdE14is_invocable_vIT_S3_ixEES3_E4typeExjOS7_, symObjAddr: 0x96C8, symBinAddr: 0xB3E4, symSize: 0x39C }
  - { offset: 0x3E295, size: 0x8, addend: 0x0, symName: __ZN14fluid_dls_font15visit_subchunksIZNS_10parse_lrgnExR20fluid_dls_instrumentEUl9RIFFChunkixE_EENSt3__19enable_ifIXsr3stdE14is_invocable_vIT_S3_ixEES3_E4typeExjOS7_, symObjAddr: 0xA504, symBinAddr: 0xC20C, symSize: 0x39C }
  - { offset: 0x3E7CB, size: 0x8, addend: 0x0, symName: __ZN22fluid_dls_articulationC2Ev, symObjAddr: 0xA220, symBinAddr: 0xBF3C, symSize: 0x264 }
  - { offset: 0x3E7F7, size: 0x8, addend: 0x0, symName: __ZN22fluid_dls_articulationC2Ev, symObjAddr: 0xA220, symBinAddr: 0xBF3C, symSize: 0x264 }
  - { offset: 0x3E817, size: 0x8, addend: 0x0, symName: __ZN22fluid_dls_articulationC2Ev, symObjAddr: 0xA220, symBinAddr: 0xBF3C, symSize: 0x264 }
  - { offset: 0x3E837, size: 0x8, addend: 0x0, symName: __ZN22fluid_dls_articulationC2Ev, symObjAddr: 0xA220, symBinAddr: 0xBF3C, symSize: 0x264 }
  - { offset: 0x3E857, size: 0x8, addend: 0x0, symName: __ZN22fluid_dls_articulationC2Ev, symObjAddr: 0xA220, symBinAddr: 0xBF3C, symSize: 0x264 }
  - { offset: 0x3E877, size: 0x8, addend: 0x0, symName: __ZN22fluid_dls_articulationC2Ev, symObjAddr: 0xA220, symBinAddr: 0xBF3C, symSize: 0x264 }
  - { offset: 0x3E897, size: 0x8, addend: 0x0, symName: __ZN22fluid_dls_articulationC2Ev, symObjAddr: 0xA220, symBinAddr: 0xBF3C, symSize: 0x264 }
  - { offset: 0x3E8B7, size: 0x8, addend: 0x0, symName: __ZN22fluid_dls_articulationC2Ev, symObjAddr: 0xA220, symBinAddr: 0xBF3C, symSize: 0x264 }
  - { offset: 0x3E8D7, size: 0x8, addend: 0x0, symName: __ZN22fluid_dls_articulationC2Ev, symObjAddr: 0xA220, symBinAddr: 0xBF3C, symSize: 0x264 }
  - { offset: 0x3E940, size: 0x8, addend: 0x0, symName: __ZNSt3__16vectorI22fluid_dls_articulationNS_9allocatorIS1_EEE24__emplace_back_slow_pathIJEEEPS1_DpOT_, symObjAddr: 0xA03C, symBinAddr: 0xBD58, symSize: 0x1E4 }
  - { offset: 0x3F0FE, size: 0x8, addend: 0x0, symName: __ZZN14fluid_dls_font9parse_insExR20fluid_dls_instrumentENKUl9RIFFChunkixE_clES2_ix.cold.1, symObjAddr: 0xF7A8, symBinAddr: 0x4AAB4, symSize: 0x44 }
  - { offset: 0x3F361, size: 0x8, addend: 0x0, symName: __ZN14fluid_dls_font15visit_subchunksIZNS_10parse_lartExR22fluid_dls_articulationEUl9RIFFChunkixE_EENSt3__19enable_ifIXsr3stdE14is_invocable_vIT_S3_ixEES3_E4typeExjOS7_, symObjAddr: 0x96C8, symBinAddr: 0xB3E4, symSize: 0x39C }
  - { offset: 0x3F377, size: 0x8, addend: 0x0, symName: __ZZN14fluid_dls_font10parse_lartExR22fluid_dls_articulationENKUl9RIFFChunkixE_clES2_ix, symObjAddr: 0x9A64, symBinAddr: 0xB780, symSize: 0x10C }
  - { offset: 0x3F43F, size: 0x8, addend: 0x0, symName: __ZN14fluid_dls_font9parse_artExR22fluid_dls_articulation, symObjAddr: 0x9B70, symBinAddr: 0xB88C, symSize: 0x4CC }
  - { offset: 0x3FB57, size: 0x8, addend: 0x0, symName: __ZN14fluid_dls_font15visit_subchunksIZNS_10parse_lrgnExR20fluid_dls_instrumentEUl9RIFFChunkixE_EENSt3__19enable_ifIXsr3stdE14is_invocable_vIT_S3_ixEES3_E4typeExjOS7_, symObjAddr: 0xA504, symBinAddr: 0xC20C, symSize: 0x39C }
  - { offset: 0x3FB62, size: 0x8, addend: 0x0, symName: __ZNSt3__114__split_bufferI22fluid_dls_articulationRNS_9allocatorIS1_EEED1Ev, symObjAddr: 0xA484, symBinAddr: 0xC1A0, symSize: 0x6C }
  - { offset: 0x40001, size: 0x8, addend: 0x0, symName: __ZZN14fluid_dls_font10parse_lrgnExR20fluid_dls_instrumentENKUl9RIFFChunkixE_clES2_ix, symObjAddr: 0xA8A0, symBinAddr: 0xC5A8, symSize: 0x294 }
  - { offset: 0x40784, size: 0x8, addend: 0x0, symName: __ZN14fluid_dls_font15visit_subchunksIZNS_9parse_rgnExR16fluid_dls_regionEUl9RIFFChunkixE_EENSt3__19enable_ifIXsr3stdE14is_invocable_vIT_S3_ixEES3_E4typeExjOS7_, symObjAddr: 0xAB34, symBinAddr: 0xC83C, symSize: 0x39C }
  - { offset: 0x40CC5, size: 0x8, addend: 0x0, symName: __ZZN14fluid_dls_font9parse_rgnExR16fluid_dls_regionENKUl9RIFFChunkixE_clES2_ix, symObjAddr: 0xAED0, symBinAddr: 0xCBD8, symSize: 0x6AC }
  - { offset: 0x41369, size: 0x8, addend: 0x0, symName: __ZL13string_formatILm32EJjEENSt3__112basic_stringIcNS0_11char_traitsIcEENS0_9allocatorIcEEEERAT__KcDpT0_, symObjAddr: 0xB57C, symBinAddr: 0xD284, symSize: 0x134 }
  - { offset: 0x41671, size: 0x8, addend: 0x0, symName: __ZZN14fluid_dls_font9parse_rgnExR16fluid_dls_regionENKUl9RIFFChunkixE_clES2_ix.cold.1, symObjAddr: 0xF7EC, symBinAddr: 0x4AAF8, symSize: 0x44 }
  - { offset: 0x418BD, size: 0x8, addend: 0x0, symName: __ZNSt12out_of_rangeC1B8ne190102EPKc, symObjAddr: 0xB870, symBinAddr: 0xD550, symSize: 0x24 }
  - { offset: 0x41BF9, size: 0x8, addend: 0x0, symName: _OUTLINED_FUNCTION_0, symObjAddr: 0xF830, symBinAddr: 0x11460, symSize: 0x18 }
  - { offset: 0x41C11, size: 0x8, addend: 0x0, symName: _OUTLINED_FUNCTION_1, symObjAddr: 0xF848, symBinAddr: 0x11478, symSize: 0xC }
  - { offset: 0x41C29, size: 0x8, addend: 0x0, symName: _OUTLINED_FUNCTION_2, symObjAddr: 0xF854, symBinAddr: 0x11484, symSize: 0xC }
  - { offset: 0x4416D, size: 0x8, addend: 0x0, symName: __ZL11atomic_lock, symObjAddr: 0x1600, symBinAddr: 0x6C458, symSize: 0x0 }
  - { offset: 0x52996, size: 0x8, addend: 0x0, symName: __ZNSt3__113__tree_removeB8ne190102IPNS_16__tree_node_baseIPvEEEEvT_S5_, symObjAddr: 0xBBC, symBinAddr: 0x1201C, symSize: 0x3C0 }
  - { offset: 0x52F99, size: 0x8, addend: 0x0, symName: __ZNSt3__127__tree_balance_after_insertB8ne190102IPNS_16__tree_node_baseIPvEEEEvT_S5_, symObjAddr: 0xF7C, symBinAddr: 0x123DC, symSize: 0x1B4 }
  - { offset: 0x53C9E, size: 0x8, addend: 0x0, symName: __ZNSt3__114__thread_proxyB8ne190102INS_5tupleIJNS_10unique_ptrINS_15__thread_structENS_14default_deleteIS3_EEEEPFvPFPvS7_ES7_ES9_S7_EEEEES7_S7_, symObjAddr: 0xABC, symBinAddr: 0x11F1C, symSize: 0x7C }
  - { offset: 0x5517F, size: 0x8, addend: 0x0, symName: __atomic_lock, symObjAddr: 0x1640, symBinAddr: 0x6C498, symSize: 0x0 }
  - { offset: 0x551A1, size: 0x8, addend: 0x0, symName: __ZL12private_data, symObjAddr: 0x1648, symBinAddr: 0x6C4C8, symSize: 0x0 }
  - { offset: 0x5623C, size: 0x8, addend: 0x0, symName: __ZNSt3__13mapIPvS1_NS_4lessIS1_EENS_9allocatorINS_4pairIKS1_S1_EEEEED1B8ne190102Ev, symObjAddr: 0x0, symBinAddr: 0x11490, symSize: 0x28 }
  - { offset: 0x562F8, size: 0x8, addend: 0x0, symName: __ZNSt3__16__treeINS_12__value_typeIPvS2_EENS_19__map_value_compareIS2_S3_NS_4lessIS2_EELb1EEENS_9allocatorIS3_EEE7destroyEPNS_11__tree_nodeIS3_S2_EE, symObjAddr: 0x994, symBinAddr: 0x11DF4, symSize: 0x44 }
  - { offset: 0x56440, size: 0x8, addend: 0x0, symName: _fluid_msleep, symObjAddr: 0x28, symBinAddr: 0x114B8, symSize: 0x34 }
  - { offset: 0x5646A, size: 0x8, addend: 0x0, symName: _fluid_msleep, symObjAddr: 0x28, symBinAddr: 0x114B8, symSize: 0x34 }
  - { offset: 0x564EB, size: 0x8, addend: 0x0, symName: _fluid_utime, symObjAddr: 0x5C, symBinAddr: 0x114EC, symSize: 0x34 }
  - { offset: 0x565A7, size: 0x8, addend: 0x0, symName: _new_fluid_thread, symObjAddr: 0x90, symBinAddr: 0x11520, symSize: 0x140 }
  - { offset: 0x566BA, size: 0x8, addend: 0x0, symName: __ZNSt3__16threadC2IRFvPFPvS2_ES2_EJRS4_RS2_ELi0EEEOT_DpOT0_, symObjAddr: 0x9D8, symBinAddr: 0x11E38, symSize: 0xE4 }
  - { offset: 0x56B0F, size: 0x8, addend: 0x0, symName: __ZL14thread_wrapperPFPvS_ES_, symObjAddr: 0x1D0, symBinAddr: 0x11660, symSize: 0x58 }
  - { offset: 0x56B97, size: 0x8, addend: 0x0, symName: _delete_fluid_thread, symObjAddr: 0x238, symBinAddr: 0x116B8, symSize: 0x68 }
  - { offset: 0x56C78, size: 0x8, addend: 0x0, symName: _fluid_thread_join, symObjAddr: 0x2A0, symBinAddr: 0x11720, symSize: 0x18 }
  - { offset: 0x56CD7, size: 0x8, addend: 0x0, symName: __fluid_mutex_init, symObjAddr: 0x2B8, symBinAddr: 0x11738, symSize: 0x6C }
  - { offset: 0x56D3F, size: 0x8, addend: 0x0, symName: _fluid_mutex_destroy, symObjAddr: 0x324, symBinAddr: 0x117A4, symSize: 0x1C }
  - { offset: 0x56DB9, size: 0x8, addend: 0x0, symName: __fluid_mutex_lock, symObjAddr: 0x340, symBinAddr: 0x117C0, symSize: 0xA8 }
  - { offset: 0x56E8A, size: 0x8, addend: 0x0, symName: _fluid_mutex_unlock, symObjAddr: 0x3E8, symBinAddr: 0x11868, symSize: 0x4 }
  - { offset: 0x56EA7, size: 0x8, addend: 0x0, symName: __fluid_rec_mutex_init, symObjAddr: 0x3EC, symBinAddr: 0x1186C, symSize: 0x70 }
  - { offset: 0x56EDB, size: 0x8, addend: 0x0, symName: _fluid_rec_mutex_destroy, symObjAddr: 0x45C, symBinAddr: 0x118DC, symSize: 0x1C }
  - { offset: 0x56F23, size: 0x8, addend: 0x0, symName: _fluid_rec_mutex_lock, symObjAddr: 0x478, symBinAddr: 0x118F8, symSize: 0x20 }
  - { offset: 0x56F62, size: 0x8, addend: 0x0, symName: _fluid_rec_mutex_unlock, symObjAddr: 0x498, symBinAddr: 0x11918, symSize: 0x4 }
  - { offset: 0x56F87, size: 0x8, addend: 0x0, symName: _fluid_cond_mutex_lock, symObjAddr: 0x49C, symBinAddr: 0x1191C, symSize: 0x20 }
  - { offset: 0x56FC6, size: 0x8, addend: 0x0, symName: _new_fluid_cond_mutex, symObjAddr: 0x4C0, symBinAddr: 0x1193C, symSize: 0x6C }
  - { offset: 0x5703A, size: 0x8, addend: 0x0, symName: _fluid_cond_signal, symObjAddr: 0x548, symBinAddr: 0x119A8, symSize: 0x4 }
  - { offset: 0x5705F, size: 0x8, addend: 0x0, symName: _fluid_cond_broadcast, symObjAddr: 0x54C, symBinAddr: 0x119AC, symSize: 0x4 }
  - { offset: 0x570E6, size: 0x8, addend: 0x0, symName: _fluid_cond_wait, symObjAddr: 0x550, symBinAddr: 0x119B0, symSize: 0x2C }
  - { offset: 0x571AC, size: 0x8, addend: 0x0, symName: _new_fluid_cond, symObjAddr: 0x57C, symBinAddr: 0x119DC, symSize: 0x68 }
  - { offset: 0x57220, size: 0x8, addend: 0x0, symName: _delete_fluid_cond, symObjAddr: 0x5E4, symBinAddr: 0x11A44, symSize: 0x1C }
  - { offset: 0x57245, size: 0x8, addend: 0x0, symName: __fluid_private_init, symObjAddr: 0x600, symBinAddr: 0x11A60, symSize: 0x8 }
  - { offset: 0x574EA, size: 0x8, addend: 0x0, symName: _fluid_private_free, symObjAddr: 0x608, symBinAddr: 0x11A68, symSize: 0xF4 }
  - { offset: 0x57854, size: 0x8, addend: 0x0, symName: _fluid_private_free.cold.1, symObjAddr: 0x13BC, symBinAddr: 0x4AB3C, symSize: 0x48 }
  - { offset: 0x57D5E, size: 0x8, addend: 0x0, symName: _fluid_private_get, symObjAddr: 0x6FC, symBinAddr: 0x11B5C, symSize: 0xF0 }
  - { offset: 0x580F9, size: 0x8, addend: 0x0, symName: _fluid_private_set, symObjAddr: 0x7EC, symBinAddr: 0x11C4C, symSize: 0xF4 }
  - { offset: 0x58805, size: 0x8, addend: 0x0, symName: _fluid_stat, symObjAddr: 0x8E0, symBinAddr: 0x11D40, symSize: 0xB4 }
  - { offset: 0x58BE8, size: 0x8, addend: 0x0, symName: __ZNSt3__112basic_stringIcNS_11char_traitsIcEENS_9allocatorIcEEE6appendB8ne190102IPKcLi0EEERS5_T_SA_, symObjAddr: 0x1130, symBinAddr: 0x12590, symSize: 0x204 }
  - { offset: 0x59C4C, size: 0x8, addend: 0x0, symName: __ZNSt3__110unique_ptrINS_15__thread_structENS_14default_deleteIS1_EEED1B8ne190102Ev, symObjAddr: 0xB80, symBinAddr: 0x11FE0, symSize: 0x3C }
  - { offset: 0x59D94, size: 0x8, addend: 0x0, symName: __ZNSt3__110unique_ptrINS_5tupleIJNS0_INS_15__thread_structENS_14default_deleteIS2_EEEEPFvPFPvS6_ES6_ES8_S6_EEENS3_ISB_EEED1B8ne190102Ev, symObjAddr: 0xB38, symBinAddr: 0x11F98, symSize: 0x48 }
  - { offset: 0x5A7A7, size: 0x8, addend: 0x0, symName: __GLOBAL__sub_I_fluid_sys_cpp11.cpp, symObjAddr: 0x15E4, symBinAddr: 0x127B0, symSize: 0x1C }
  - { offset: 0x5A7BF, size: 0x8, addend: 0x0, symName: __GLOBAL__sub_I_fluid_sys_cpp11.cpp, symObjAddr: 0x15E4, symBinAddr: 0x127B0, symSize: 0x1C }
  - { offset: 0x5A920, size: 0x8, addend: 0x0, symName: _OUTLINED_FUNCTION_0, symObjAddr: 0x1494, symBinAddr: 0x12794, symSize: 0x14 }
  - { offset: 0x5A938, size: 0x8, addend: 0x0, symName: _OUTLINED_FUNCTION_1, symObjAddr: 0x14A8, symBinAddr: 0x127A8, symSize: 0x8 }
  - { offset: 0x5C920, size: 0x8, addend: 0x0, symName: _fluid_file_test, symObjAddr: 0x0, symBinAddr: 0x127CC, symSize: 0x104 }
  - { offset: 0x662DF, size: 0x8, addend: 0x0, symName: _fluid_file_test, symObjAddr: 0x0, symBinAddr: 0x127CC, symSize: 0x104 }
  - { offset: 0x69077, size: 0x8, addend: 0x0, symName: _fluid_ct2hz_tab, symObjAddr: 0x2588, symBinAddr: 0x68258, symSize: 0x0 }
  - { offset: 0x69087, size: 0x8, addend: 0x0, symName: __ZN17ConstExprArr_implI12Ct2HzFunctorLb1ELi0EJLi1ELi2ELi3ELi4ELi5ELi6ELi7ELi8ELi9ELi10ELi11ELi12ELi13ELi14ELi15ELi16ELi17ELi18ELi19ELi20ELi21ELi22ELi23ELi24ELi25ELi26ELi27ELi28ELi29ELi30ELi31ELi32ELi33ELi34ELi35ELi36ELi37ELi38ELi39ELi40ELi41ELi42ELi43ELi44ELi45ELi46ELi47ELi48ELi49ELi50ELi51ELi52ELi53ELi54ELi55ELi56ELi57ELi58ELi59ELi60ELi61ELi62ELi63ELi64ELi65ELi66ELi67ELi68ELi69ELi70ELi71ELi72ELi73ELi74ELi75ELi76ELi77ELi78ELi79ELi80ELi81ELi82ELi83ELi84ELi85ELi86ELi87ELi88ELi89ELi90ELi91ELi92ELi93ELi94ELi95ELi96ELi97ELi98ELi99ELi100ELi101ELi102ELi103ELi104ELi105ELi106ELi107ELi108ELi109ELi110ELi111ELi112ELi113ELi114ELi115ELi116ELi117ELi118ELi119ELi120ELi121ELi122ELi123ELi124ELi125ELi126ELi127ELi128ELi129ELi130ELi131ELi132ELi133ELi134ELi135ELi136ELi137ELi138ELi139ELi140ELi141ELi142ELi143ELi144ELi145ELi146ELi147ELi148ELi149ELi150ELi151ELi152ELi153ELi154ELi155ELi156ELi157ELi158ELi159ELi160ELi161ELi162ELi163ELi164ELi165ELi166ELi167ELi168ELi169ELi170ELi171ELi172ELi173ELi174ELi175ELi176ELi177ELi178ELi179ELi180ELi181ELi182ELi183ELi184ELi185ELi186ELi187ELi188ELi189ELi190ELi191ELi192ELi193ELi194ELi195ELi196ELi197ELi198ELi199ELi200ELi201ELi202ELi203ELi204ELi205ELi206ELi207ELi208ELi209ELi210ELi211ELi212ELi213ELi214ELi215ELi216ELi217ELi218ELi219ELi220ELi221ELi222ELi223ELi224ELi225ELi226ELi227ELi228ELi229ELi230ELi231ELi232ELi233ELi234ELi235ELi236ELi237ELi238ELi239ELi240ELi241ELi242ELi243ELi244ELi245ELi246ELi247ELi248ELi249ELi250ELi251ELi252ELi253ELi254ELi255ELi256ELi257ELi258ELi259ELi260ELi261ELi262ELi263ELi264ELi265ELi266ELi267ELi268ELi269ELi270ELi271ELi272ELi273ELi274ELi275ELi276ELi277ELi278ELi279ELi280ELi281ELi282ELi283ELi284ELi285ELi286ELi287ELi288ELi289ELi290ELi291ELi292ELi293ELi294ELi295ELi296ELi297ELi298ELi299ELi300ELi301ELi302ELi303ELi304ELi305ELi306ELi307ELi308ELi309ELi310ELi311ELi312ELi313ELi314ELi315ELi316ELi317ELi318ELi319ELi320ELi321ELi322ELi323ELi324ELi325ELi326ELi327ELi328ELi329ELi330ELi331ELi332ELi333ELi334ELi335ELi336ELi337ELi338ELi339ELi340ELi341ELi342ELi343ELi344ELi345ELi346ELi347ELi348ELi349ELi350ELi351ELi352ELi353ELi354ELi355ELi356ELi357ELi358ELi359ELi360ELi361ELi362ELi363ELi364ELi365ELi366ELi367ELi368ELi369ELi370ELi371ELi372ELi373ELi374ELi375ELi376ELi377ELi378ELi379ELi380ELi381ELi382ELi383ELi384ELi385ELi386ELi387ELi388ELi389ELi390ELi391ELi392ELi393ELi394ELi395ELi396ELi397ELi398ELi399ELi400ELi401ELi402ELi403ELi404ELi405ELi406ELi407ELi408ELi409ELi410ELi411ELi412ELi413ELi414ELi415ELi416ELi417ELi418ELi419ELi420ELi421ELi422ELi423ELi424ELi425ELi426ELi427ELi428ELi429ELi430ELi431ELi432ELi433ELi434ELi435ELi436ELi437ELi438ELi439ELi440ELi441ELi442ELi443ELi444ELi445ELi446ELi447ELi448ELi449ELi450ELi451ELi452ELi453ELi454ELi455ELi456ELi457ELi458ELi459ELi460ELi461ELi462ELi463ELi464ELi465ELi466ELi467ELi468ELi469ELi470ELi471ELi472ELi473ELi474ELi475ELi476ELi477ELi478ELi479ELi480ELi481ELi482ELi483ELi484ELi485ELi486ELi487ELi488ELi489ELi490ELi491ELi492ELi493ELi494ELi495ELi496ELi497ELi498ELi499ELi500ELi501ELi502ELi503ELi504ELi505ELi506ELi507ELi508ELi509ELi510ELi511ELi512ELi513ELi514ELi515ELi516ELi517ELi518ELi519ELi520ELi521ELi522ELi523ELi524ELi525ELi526ELi527ELi528ELi529ELi530ELi531ELi532ELi533ELi534ELi535ELi536ELi537ELi538ELi539ELi540ELi541ELi542ELi543ELi544ELi545ELi546ELi547ELi548ELi549ELi550ELi551ELi552ELi553ELi554ELi555ELi556ELi557ELi558ELi559ELi560ELi561ELi562ELi563ELi564ELi565ELi566ELi567ELi568ELi569ELi570ELi571ELi572ELi573ELi574ELi575ELi576ELi577ELi578ELi579ELi580ELi581ELi582ELi583ELi584ELi585ELi586ELi587ELi588ELi589ELi590ELi591ELi592ELi593ELi594ELi595ELi596ELi597ELi598ELi599ELi600ELi601ELi602ELi603ELi604ELi605ELi606ELi607ELi608ELi609ELi610ELi611ELi612ELi613ELi614ELi615ELi616ELi617ELi618ELi619ELi620ELi621ELi622ELi623ELi624ELi625ELi626ELi627ELi628ELi629ELi630ELi631ELi632ELi633ELi634ELi635ELi636ELi637ELi638ELi639ELi640ELi641ELi642ELi643ELi644ELi645ELi646ELi647ELi648ELi649ELi650ELi651ELi652ELi653ELi654ELi655ELi656ELi657ELi658ELi659ELi660ELi661ELi662ELi663ELi664ELi665ELi666ELi667ELi668ELi669ELi670ELi671ELi672ELi673ELi674ELi675ELi676ELi677ELi678ELi679ELi680ELi681ELi682ELi683ELi684ELi685ELi686ELi687ELi688ELi689ELi690ELi691ELi692ELi693ELi694ELi695ELi696ELi697ELi698ELi699ELi700ELi701ELi702ELi703ELi704ELi705ELi706ELi707ELi708ELi709ELi710ELi711ELi712ELi713ELi714ELi715ELi716ELi717ELi718ELi719ELi720ELi721ELi722ELi723ELi724ELi725ELi726ELi727ELi728ELi729ELi730ELi731ELi732ELi733ELi734ELi735ELi736ELi737ELi738ELi739ELi740ELi741ELi742ELi743ELi744ELi745ELi746ELi747ELi748ELi749ELi750ELi751ELi752ELi753ELi754ELi755ELi756ELi757ELi758ELi759ELi760ELi761ELi762ELi763ELi764ELi765ELi766ELi767ELi768ELi769ELi770ELi771ELi772ELi773ELi774ELi775ELi776ELi777ELi778ELi779ELi780ELi781ELi782ELi783ELi784ELi785ELi786ELi787ELi788ELi789ELi790ELi791ELi792ELi793ELi794ELi795ELi796ELi797ELi798ELi799ELi800ELi801ELi802ELi803ELi804ELi805ELi806ELi807ELi808ELi809ELi810ELi811ELi812ELi813ELi814ELi815ELi816ELi817ELi818ELi819ELi820ELi821ELi822ELi823ELi824ELi825ELi826ELi827ELi828ELi829ELi830ELi831ELi832ELi833ELi834ELi835ELi836ELi837ELi838ELi839ELi840ELi841ELi842ELi843ELi844ELi845ELi846ELi847ELi848ELi849ELi850ELi851ELi852ELi853ELi854ELi855ELi856ELi857ELi858ELi859ELi860ELi861ELi862ELi863ELi864ELi865ELi866ELi867ELi868ELi869ELi870ELi871ELi872ELi873ELi874ELi875ELi876ELi877ELi878ELi879ELi880ELi881ELi882ELi883ELi884ELi885ELi886ELi887ELi888ELi889ELi890ELi891ELi892ELi893ELi894ELi895ELi896ELi897ELi898ELi899ELi900ELi901ELi902ELi903ELi904ELi905ELi906ELi907ELi908ELi909ELi910ELi911ELi912ELi913ELi914ELi915ELi916ELi917ELi918ELi919ELi920ELi921ELi922ELi923ELi924ELi925ELi926ELi927ELi928ELi929ELi930ELi931ELi932ELi933ELi934ELi935ELi936ELi937ELi938ELi939ELi940ELi941ELi942ELi943ELi944ELi945ELi946ELi947ELi948ELi949ELi950ELi951ELi952ELi953ELi954ELi955ELi956ELi957ELi958ELi959ELi960ELi961ELi962ELi963ELi964ELi965ELi966ELi967ELi968ELi969ELi970ELi971ELi972ELi973ELi974ELi975ELi976ELi977ELi978ELi979ELi980ELi981ELi982ELi983ELi984ELi985ELi986ELi987ELi988ELi989ELi990ELi991ELi992ELi993ELi994ELi995ELi996ELi997ELi998ELi999ELi1000ELi1001ELi1002ELi1003ELi1004ELi1005ELi1006ELi1007ELi1008ELi1009ELi1010ELi1011ELi1012ELi1013ELi1014ELi1015ELi1016ELi1017ELi1018ELi1019ELi1020ELi1021ELi1022ELi1023ELi1024ELi1025ELi1026ELi1027ELi1028ELi1029ELi1030ELi1031ELi1032ELi1033ELi1034ELi1035ELi1036ELi1037ELi1038ELi1039ELi1040ELi1041ELi1042ELi1043ELi1044ELi1045ELi1046ELi1047ELi1048ELi1049ELi1050ELi1051ELi1052ELi1053ELi1054ELi1055ELi1056ELi1057ELi1058ELi1059ELi1060ELi1061ELi1062ELi1063ELi1064ELi1065ELi1066ELi1067ELi1068ELi1069ELi1070ELi1071ELi1072ELi1073ELi1074ELi1075ELi1076ELi1077ELi1078ELi1079ELi1080ELi1081ELi1082ELi1083ELi1084ELi1085ELi1086ELi1087ELi1088ELi1089ELi1090ELi1091ELi1092ELi1093ELi1094ELi1095ELi1096ELi1097ELi1098ELi1099ELi1100ELi1101ELi1102ELi1103ELi1104ELi1105ELi1106ELi1107ELi1108ELi1109ELi1110ELi1111ELi1112ELi1113ELi1114ELi1115ELi1116ELi1117ELi1118ELi1119ELi1120ELi1121ELi1122ELi1123ELi1124ELi1125ELi1126ELi1127ELi1128ELi1129ELi1130ELi1131ELi1132ELi1133ELi1134ELi1135ELi1136ELi1137ELi1138ELi1139ELi1140ELi1141ELi1142ELi1143ELi1144ELi1145ELi1146ELi1147ELi1148ELi1149ELi1150ELi1151ELi1152ELi1153ELi1154ELi1155ELi1156ELi1157ELi1158ELi1159ELi1160ELi1161ELi1162ELi1163ELi1164ELi1165ELi1166ELi1167ELi1168ELi1169ELi1170ELi1171ELi1172ELi1173ELi1174ELi1175ELi1176ELi1177ELi1178ELi1179ELi1180ELi1181ELi1182ELi1183ELi1184ELi1185ELi1186ELi1187ELi1188ELi1189ELi1190ELi1191ELi1192ELi1193ELi1194ELi1195ELi1196ELi1197ELi1198ELi1199EEE5valueE, symObjAddr: 0x0, symBinAddr: 0x4BA68, symSize: 0x0 }
  - { offset: 0x6B33A, size: 0x8, addend: 0x0, symName: _fluid_cb2amp_tab, symObjAddr: 0x2D10, symBinAddr: 0x68260, symSize: 0x0 }
  - { offset: 0x6B34A, size: 0x8, addend: 0x0, symName: __ZN17ConstExprArr_implI13Cb2AmpFunctorLb1ELi0EJLi1ELi2ELi3ELi4ELi5ELi6ELi7ELi8ELi9ELi10ELi11ELi12ELi13ELi14ELi15ELi16ELi17ELi18ELi19ELi20ELi21ELi22ELi23ELi24ELi25ELi26ELi27ELi28ELi29ELi30ELi31ELi32ELi33ELi34ELi35ELi36ELi37ELi38ELi39ELi40ELi41ELi42ELi43ELi44ELi45ELi46ELi47ELi48ELi49ELi50ELi51ELi52ELi53ELi54ELi55ELi56ELi57ELi58ELi59ELi60ELi61ELi62ELi63ELi64ELi65ELi66ELi67ELi68ELi69ELi70ELi71ELi72ELi73ELi74ELi75ELi76ELi77ELi78ELi79ELi80ELi81ELi82ELi83ELi84ELi85ELi86ELi87ELi88ELi89ELi90ELi91ELi92ELi93ELi94ELi95ELi96ELi97ELi98ELi99ELi100ELi101ELi102ELi103ELi104ELi105ELi106ELi107ELi108ELi109ELi110ELi111ELi112ELi113ELi114ELi115ELi116ELi117ELi118ELi119ELi120ELi121ELi122ELi123ELi124ELi125ELi126ELi127ELi128ELi129ELi130ELi131ELi132ELi133ELi134ELi135ELi136ELi137ELi138ELi139ELi140ELi141ELi142ELi143ELi144ELi145ELi146ELi147ELi148ELi149ELi150ELi151ELi152ELi153ELi154ELi155ELi156ELi157ELi158ELi159ELi160ELi161ELi162ELi163ELi164ELi165ELi166ELi167ELi168ELi169ELi170ELi171ELi172ELi173ELi174ELi175ELi176ELi177ELi178ELi179ELi180ELi181ELi182ELi183ELi184ELi185ELi186ELi187ELi188ELi189ELi190ELi191ELi192ELi193ELi194ELi195ELi196ELi197ELi198ELi199ELi200ELi201ELi202ELi203ELi204ELi205ELi206ELi207ELi208ELi209ELi210ELi211ELi212ELi213ELi214ELi215ELi216ELi217ELi218ELi219ELi220ELi221ELi222ELi223ELi224ELi225ELi226ELi227ELi228ELi229ELi230ELi231ELi232ELi233ELi234ELi235ELi236ELi237ELi238ELi239ELi240ELi241ELi242ELi243ELi244ELi245ELi246ELi247ELi248ELi249ELi250ELi251ELi252ELi253ELi254ELi255ELi256ELi257ELi258ELi259ELi260ELi261ELi262ELi263ELi264ELi265ELi266ELi267ELi268ELi269ELi270ELi271ELi272ELi273ELi274ELi275ELi276ELi277ELi278ELi279ELi280ELi281ELi282ELi283ELi284ELi285ELi286ELi287ELi288ELi289ELi290ELi291ELi292ELi293ELi294ELi295ELi296ELi297ELi298ELi299ELi300ELi301ELi302ELi303ELi304ELi305ELi306ELi307ELi308ELi309ELi310ELi311ELi312ELi313ELi314ELi315ELi316ELi317ELi318ELi319ELi320ELi321ELi322ELi323ELi324ELi325ELi326ELi327ELi328ELi329ELi330ELi331ELi332ELi333ELi334ELi335ELi336ELi337ELi338ELi339ELi340ELi341ELi342ELi343ELi344ELi345ELi346ELi347ELi348ELi349ELi350ELi351ELi352ELi353ELi354ELi355ELi356ELi357ELi358ELi359ELi360ELi361ELi362ELi363ELi364ELi365ELi366ELi367ELi368ELi369ELi370ELi371ELi372ELi373ELi374ELi375ELi376ELi377ELi378ELi379ELi380ELi381ELi382ELi383ELi384ELi385ELi386ELi387ELi388ELi389ELi390ELi391ELi392ELi393ELi394ELi395ELi396ELi397ELi398ELi399ELi400ELi401ELi402ELi403ELi404ELi405ELi406ELi407ELi408ELi409ELi410ELi411ELi412ELi413ELi414ELi415ELi416ELi417ELi418ELi419ELi420ELi421ELi422ELi423ELi424ELi425ELi426ELi427ELi428ELi429ELi430ELi431ELi432ELi433ELi434ELi435ELi436ELi437ELi438ELi439ELi440ELi441ELi442ELi443ELi444ELi445ELi446ELi447ELi448ELi449ELi450ELi451ELi452ELi453ELi454ELi455ELi456ELi457ELi458ELi459ELi460ELi461ELi462ELi463ELi464ELi465ELi466ELi467ELi468ELi469ELi470ELi471ELi472ELi473ELi474ELi475ELi476ELi477ELi478ELi479ELi480ELi481ELi482ELi483ELi484ELi485ELi486ELi487ELi488ELi489ELi490ELi491ELi492ELi493ELi494ELi495ELi496ELi497ELi498ELi499ELi500ELi501ELi502ELi503ELi504ELi505ELi506ELi507ELi508ELi509ELi510ELi511ELi512ELi513ELi514ELi515ELi516ELi517ELi518ELi519ELi520ELi521ELi522ELi523ELi524ELi525ELi526ELi527ELi528ELi529ELi530ELi531ELi532ELi533ELi534ELi535ELi536ELi537ELi538ELi539ELi540ELi541ELi542ELi543ELi544ELi545ELi546ELi547ELi548ELi549ELi550ELi551ELi552ELi553ELi554ELi555ELi556ELi557ELi558ELi559ELi560ELi561ELi562ELi563ELi564ELi565ELi566ELi567ELi568ELi569ELi570ELi571ELi572ELi573ELi574ELi575ELi576ELi577ELi578ELi579ELi580ELi581ELi582ELi583ELi584ELi585ELi586ELi587ELi588ELi589ELi590ELi591ELi592ELi593ELi594ELi595ELi596ELi597ELi598ELi599ELi600ELi601ELi602ELi603ELi604ELi605ELi606ELi607ELi608ELi609ELi610ELi611ELi612ELi613ELi614ELi615ELi616ELi617ELi618ELi619ELi620ELi621ELi622ELi623ELi624ELi625ELi626ELi627ELi628ELi629ELi630ELi631ELi632ELi633ELi634ELi635ELi636ELi637ELi638ELi639ELi640ELi641ELi642ELi643ELi644ELi645ELi646ELi647ELi648ELi649ELi650ELi651ELi652ELi653ELi654ELi655ELi656ELi657ELi658ELi659ELi660ELi661ELi662ELi663ELi664ELi665ELi666ELi667ELi668ELi669ELi670ELi671ELi672ELi673ELi674ELi675ELi676ELi677ELi678ELi679ELi680ELi681ELi682ELi683ELi684ELi685ELi686ELi687ELi688ELi689ELi690ELi691ELi692ELi693ELi694ELi695ELi696ELi697ELi698ELi699ELi700ELi701ELi702ELi703ELi704ELi705ELi706ELi707ELi708ELi709ELi710ELi711ELi712ELi713ELi714ELi715ELi716ELi717ELi718ELi719ELi720ELi721ELi722ELi723ELi724ELi725ELi726ELi727ELi728ELi729ELi730ELi731ELi732ELi733ELi734ELi735ELi736ELi737ELi738ELi739ELi740ELi741ELi742ELi743ELi744ELi745ELi746ELi747ELi748ELi749ELi750ELi751ELi752ELi753ELi754ELi755ELi756ELi757ELi758ELi759ELi760ELi761ELi762ELi763ELi764ELi765ELi766ELi767ELi768ELi769ELi770ELi771ELi772ELi773ELi774ELi775ELi776ELi777ELi778ELi779ELi780ELi781ELi782ELi783ELi784ELi785ELi786ELi787ELi788ELi789ELi790ELi791ELi792ELi793ELi794ELi795ELi796ELi797ELi798ELi799ELi800ELi801ELi802ELi803ELi804ELi805ELi806ELi807ELi808ELi809ELi810ELi811ELi812ELi813ELi814ELi815ELi816ELi817ELi818ELi819ELi820ELi821ELi822ELi823ELi824ELi825ELi826ELi827ELi828ELi829ELi830ELi831ELi832ELi833ELi834ELi835ELi836ELi837ELi838ELi839ELi840ELi841ELi842ELi843ELi844ELi845ELi846ELi847ELi848ELi849ELi850ELi851ELi852ELi853ELi854ELi855ELi856ELi857ELi858ELi859ELi860ELi861ELi862ELi863ELi864ELi865ELi866ELi867ELi868ELi869ELi870ELi871ELi872ELi873ELi874ELi875ELi876ELi877ELi878ELi879ELi880ELi881ELi882ELi883ELi884ELi885ELi886ELi887ELi888ELi889ELi890ELi891ELi892ELi893ELi894ELi895ELi896ELi897ELi898ELi899ELi900ELi901ELi902ELi903ELi904ELi905ELi906ELi907ELi908ELi909ELi910ELi911ELi912ELi913ELi914ELi915ELi916ELi917ELi918ELi919ELi920ELi921ELi922ELi923ELi924ELi925ELi926ELi927ELi928ELi929ELi930ELi931ELi932ELi933ELi934ELi935ELi936ELi937ELi938ELi939ELi940ELi941ELi942ELi943ELi944ELi945ELi946ELi947ELi948ELi949ELi950ELi951ELi952ELi953ELi954ELi955ELi956ELi957ELi958ELi959ELi960ELi961ELi962ELi963ELi964ELi965ELi966ELi967ELi968ELi969ELi970ELi971ELi972ELi973ELi974ELi975ELi976ELi977ELi978ELi979ELi980ELi981ELi982ELi983ELi984ELi985ELi986ELi987ELi988ELi989ELi990ELi991ELi992ELi993ELi994ELi995ELi996ELi997ELi998ELi999ELi1000ELi1001ELi1002ELi1003ELi1004ELi1005ELi1006ELi1007ELi1008ELi1009ELi1010ELi1011ELi1012ELi1013ELi1014ELi1015ELi1016ELi1017ELi1018ELi1019ELi1020ELi1021ELi1022ELi1023ELi1024ELi1025ELi1026ELi1027ELi1028ELi1029ELi1030ELi1031ELi1032ELi1033ELi1034ELi1035ELi1036ELi1037ELi1038ELi1039ELi1040ELi1041ELi1042ELi1043ELi1044ELi1045ELi1046ELi1047ELi1048ELi1049ELi1050ELi1051ELi1052ELi1053ELi1054ELi1055ELi1056ELi1057ELi1058ELi1059ELi1060ELi1061ELi1062ELi1063ELi1064ELi1065ELi1066ELi1067ELi1068ELi1069ELi1070ELi1071ELi1072ELi1073ELi1074ELi1075ELi1076ELi1077ELi1078ELi1079ELi1080ELi1081ELi1082ELi1083ELi1084ELi1085ELi1086ELi1087ELi1088ELi1089ELi1090ELi1091ELi1092ELi1093ELi1094ELi1095ELi1096ELi1097ELi1098ELi1099ELi1100ELi1101ELi1102ELi1103ELi1104ELi1105ELi1106ELi1107ELi1108ELi1109ELi1110ELi1111ELi1112ELi1113ELi1114ELi1115ELi1116ELi1117ELi1118ELi1119ELi1120ELi1121ELi1122ELi1123ELi1124ELi1125ELi1126ELi1127ELi1128ELi1129ELi1130ELi1131ELi1132ELi1133ELi1134ELi1135ELi1136ELi1137ELi1138ELi1139ELi1140ELi1141ELi1142ELi1143ELi1144ELi1145ELi1146ELi1147ELi1148ELi1149ELi1150ELi1151ELi1152ELi1153ELi1154ELi1155ELi1156ELi1157ELi1158ELi1159ELi1160ELi1161ELi1162ELi1163ELi1164ELi1165ELi1166ELi1167ELi1168ELi1169ELi1170ELi1171ELi1172ELi1173ELi1174ELi1175ELi1176ELi1177ELi1178ELi1179ELi1180ELi1181ELi1182ELi1183ELi1184ELi1185ELi1186ELi1187ELi1188ELi1189ELi1190ELi1191ELi1192ELi1193ELi1194ELi1195ELi1196ELi1197ELi1198ELi1199ELi1200ELi1201ELi1202ELi1203ELi1204ELi1205ELi1206ELi1207ELi1208ELi1209ELi1210ELi1211ELi1212ELi1213ELi1214ELi1215ELi1216ELi1217ELi1218ELi1219ELi1220ELi1221ELi1222ELi1223ELi1224ELi1225ELi1226ELi1227ELi1228ELi1229ELi1230ELi1231ELi1232ELi1233ELi1234ELi1235ELi1236ELi1237ELi1238ELi1239ELi1240ELi1241ELi1242ELi1243ELi1244ELi1245ELi1246ELi1247ELi1248ELi1249ELi1250ELi1251ELi1252ELi1253ELi1254ELi1255ELi1256ELi1257ELi1258ELi1259ELi1260ELi1261ELi1262ELi1263ELi1264ELi1265ELi1266ELi1267ELi1268ELi1269ELi1270ELi1271ELi1272ELi1273ELi1274ELi1275ELi1276ELi1277ELi1278ELi1279ELi1280ELi1281ELi1282ELi1283ELi1284ELi1285ELi1286ELi1287ELi1288ELi1289ELi1290ELi1291ELi1292ELi1293ELi1294ELi1295ELi1296ELi1297ELi1298ELi1299ELi1300ELi1301ELi1302ELi1303ELi1304ELi1305ELi1306ELi1307ELi1308ELi1309ELi1310ELi1311ELi1312ELi1313ELi1314ELi1315ELi1316ELi1317ELi1318ELi1319ELi1320ELi1321ELi1322ELi1323ELi1324ELi1325ELi1326ELi1327ELi1328ELi1329ELi1330ELi1331ELi1332ELi1333ELi1334ELi1335ELi1336ELi1337ELi1338ELi1339ELi1340ELi1341ELi1342ELi1343ELi1344ELi1345ELi1346ELi1347ELi1348ELi1349ELi1350ELi1351ELi1352ELi1353ELi1354ELi1355ELi1356ELi1357ELi1358ELi1359ELi1360ELi1361ELi1362ELi1363ELi1364ELi1365ELi1366ELi1367ELi1368ELi1369ELi1370ELi1371ELi1372ELi1373ELi1374ELi1375ELi1376ELi1377ELi1378ELi1379ELi1380ELi1381ELi1382ELi1383ELi1384ELi1385ELi1386ELi1387ELi1388ELi1389ELi1390ELi1391ELi1392ELi1393ELi1394ELi1395ELi1396ELi1397ELi1398ELi1399ELi1400ELi1401ELi1402ELi1403ELi1404ELi1405ELi1406ELi1407ELi1408ELi1409ELi1410ELi1411ELi1412ELi1413ELi1414ELi1415ELi1416ELi1417ELi1418ELi1419ELi1420ELi1421ELi1422ELi1423ELi1424ELi1425ELi1426ELi1427ELi1428ELi1429ELi1430ELi1431ELi1432ELi1433ELi1434ELi1435ELi1436ELi1437ELi1438ELi1439ELi1440EEE5valueE, symObjAddr: 0x0, symBinAddr: 0x4DFE8, symSize: 0x0 }
  - { offset: 0x6DC94, size: 0x8, addend: 0x0, symName: _fluid_concave_tab, symObjAddr: 0x408, symBinAddr: 0x68268, symSize: 0x0 }
  - { offset: 0x6DCA4, size: 0x8, addend: 0x0, symName: __ZN17ConstExprArr_implI14ConcaveFunctorLb1ELi0EJLi1ELi2ELi3ELi4ELi5ELi6ELi7ELi8ELi9ELi10ELi11ELi12ELi13ELi14ELi15ELi16ELi17ELi18ELi19ELi20ELi21ELi22ELi23ELi24ELi25ELi26ELi27ELi28ELi29ELi30ELi31ELi32ELi33ELi34ELi35ELi36ELi37ELi38ELi39ELi40ELi41ELi42ELi43ELi44ELi45ELi46ELi47ELi48ELi49ELi50ELi51ELi52ELi53ELi54ELi55ELi56ELi57ELi58ELi59ELi60ELi61ELi62ELi63ELi64ELi65ELi66ELi67ELi68ELi69ELi70ELi71ELi72ELi73ELi74ELi75ELi76ELi77ELi78ELi79ELi80ELi81ELi82ELi83ELi84ELi85ELi86ELi87ELi88ELi89ELi90ELi91ELi92ELi93ELi94ELi95ELi96ELi97ELi98ELi99ELi100ELi101ELi102ELi103ELi104ELi105ELi106ELi107ELi108ELi109ELi110ELi111ELi112ELi113ELi114ELi115ELi116ELi117ELi118ELi119ELi120ELi121ELi122ELi123ELi124ELi125ELi126ELi127EEE5valueE, symObjAddr: 0x0, symBinAddr: 0x50CF0, symSize: 0x0 }
  - { offset: 0x6E205, size: 0x8, addend: 0x0, symName: _fluid_convex_tab, symObjAddr: 0x408, symBinAddr: 0x68270, symSize: 0x0 }
  - { offset: 0x6E215, size: 0x8, addend: 0x0, symName: __ZN17ConstExprArr_implI13ConvexFunctorLb1ELi0EJLi1ELi2ELi3ELi4ELi5ELi6ELi7ELi8ELi9ELi10ELi11ELi12ELi13ELi14ELi15ELi16ELi17ELi18ELi19ELi20ELi21ELi22ELi23ELi24ELi25ELi26ELi27ELi28ELi29ELi30ELi31ELi32ELi33ELi34ELi35ELi36ELi37ELi38ELi39ELi40ELi41ELi42ELi43ELi44ELi45ELi46ELi47ELi48ELi49ELi50ELi51ELi52ELi53ELi54ELi55ELi56ELi57ELi58ELi59ELi60ELi61ELi62ELi63ELi64ELi65ELi66ELi67ELi68ELi69ELi70ELi71ELi72ELi73ELi74ELi75ELi76ELi77ELi78ELi79ELi80ELi81ELi82ELi83ELi84ELi85ELi86ELi87ELi88ELi89ELi90ELi91ELi92ELi93ELi94ELi95ELi96ELi97ELi98ELi99ELi100ELi101ELi102ELi103ELi104ELi105ELi106ELi107ELi108ELi109ELi110ELi111ELi112ELi113ELi114ELi115ELi116ELi117ELi118ELi119ELi120ELi121ELi122ELi123ELi124ELi125ELi126ELi127EEE5valueE, symObjAddr: 0x0, symBinAddr: 0x510F0, symSize: 0x0 }
  - { offset: 0x6E776, size: 0x8, addend: 0x0, symName: _fluid_pan_tab, symObjAddr: 0x1F58, symBinAddr: 0x68278, symSize: 0x0 }
  - { offset: 0x6E786, size: 0x8, addend: 0x0, symName: __ZN17ConstExprArr_implI10PanFunctorLb1ELi0EJLi1ELi2ELi3ELi4ELi5ELi6ELi7ELi8ELi9ELi10ELi11ELi12ELi13ELi14ELi15ELi16ELi17ELi18ELi19ELi20ELi21ELi22ELi23ELi24ELi25ELi26ELi27ELi28ELi29ELi30ELi31ELi32ELi33ELi34ELi35ELi36ELi37ELi38ELi39ELi40ELi41ELi42ELi43ELi44ELi45ELi46ELi47ELi48ELi49ELi50ELi51ELi52ELi53ELi54ELi55ELi56ELi57ELi58ELi59ELi60ELi61ELi62ELi63ELi64ELi65ELi66ELi67ELi68ELi69ELi70ELi71ELi72ELi73ELi74ELi75ELi76ELi77ELi78ELi79ELi80ELi81ELi82ELi83ELi84ELi85ELi86ELi87ELi88ELi89ELi90ELi91ELi92ELi93ELi94ELi95ELi96ELi97ELi98ELi99ELi100ELi101ELi102ELi103ELi104ELi105ELi106ELi107ELi108ELi109ELi110ELi111ELi112ELi113ELi114ELi115ELi116ELi117ELi118ELi119ELi120ELi121ELi122ELi123ELi124ELi125ELi126ELi127ELi128ELi129ELi130ELi131ELi132ELi133ELi134ELi135ELi136ELi137ELi138ELi139ELi140ELi141ELi142ELi143ELi144ELi145ELi146ELi147ELi148ELi149ELi150ELi151ELi152ELi153ELi154ELi155ELi156ELi157ELi158ELi159ELi160ELi161ELi162ELi163ELi164ELi165ELi166ELi167ELi168ELi169ELi170ELi171ELi172ELi173ELi174ELi175ELi176ELi177ELi178ELi179ELi180ELi181ELi182ELi183ELi184ELi185ELi186ELi187ELi188ELi189ELi190ELi191ELi192ELi193ELi194ELi195ELi196ELi197ELi198ELi199ELi200ELi201ELi202ELi203ELi204ELi205ELi206ELi207ELi208ELi209ELi210ELi211ELi212ELi213ELi214ELi215ELi216ELi217ELi218ELi219ELi220ELi221ELi222ELi223ELi224ELi225ELi226ELi227ELi228ELi229ELi230ELi231ELi232ELi233ELi234ELi235ELi236ELi237ELi238ELi239ELi240ELi241ELi242ELi243ELi244ELi245ELi246ELi247ELi248ELi249ELi250ELi251ELi252ELi253ELi254ELi255ELi256ELi257ELi258ELi259ELi260ELi261ELi262ELi263ELi264ELi265ELi266ELi267ELi268ELi269ELi270ELi271ELi272ELi273ELi274ELi275ELi276ELi277ELi278ELi279ELi280ELi281ELi282ELi283ELi284ELi285ELi286ELi287ELi288ELi289ELi290ELi291ELi292ELi293ELi294ELi295ELi296ELi297ELi298ELi299ELi300ELi301ELi302ELi303ELi304ELi305ELi306ELi307ELi308ELi309ELi310ELi311ELi312ELi313ELi314ELi315ELi316ELi317ELi318ELi319ELi320ELi321ELi322ELi323ELi324ELi325ELi326ELi327ELi328ELi329ELi330ELi331ELi332ELi333ELi334ELi335ELi336ELi337ELi338ELi339ELi340ELi341ELi342ELi343ELi344ELi345ELi346ELi347ELi348ELi349ELi350ELi351ELi352ELi353ELi354ELi355ELi356ELi357ELi358ELi359ELi360ELi361ELi362ELi363ELi364ELi365ELi366ELi367ELi368ELi369ELi370ELi371ELi372ELi373ELi374ELi375ELi376ELi377ELi378ELi379ELi380ELi381ELi382ELi383ELi384ELi385ELi386ELi387ELi388ELi389ELi390ELi391ELi392ELi393ELi394ELi395ELi396ELi397ELi398ELi399ELi400ELi401ELi402ELi403ELi404ELi405ELi406ELi407ELi408ELi409ELi410ELi411ELi412ELi413ELi414ELi415ELi416ELi417ELi418ELi419ELi420ELi421ELi422ELi423ELi424ELi425ELi426ELi427ELi428ELi429ELi430ELi431ELi432ELi433ELi434ELi435ELi436ELi437ELi438ELi439ELi440ELi441ELi442ELi443ELi444ELi445ELi446ELi447ELi448ELi449ELi450ELi451ELi452ELi453ELi454ELi455ELi456ELi457ELi458ELi459ELi460ELi461ELi462ELi463ELi464ELi465ELi466ELi467ELi468ELi469ELi470ELi471ELi472ELi473ELi474ELi475ELi476ELi477ELi478ELi479ELi480ELi481ELi482ELi483ELi484ELi485ELi486ELi487ELi488ELi489ELi490ELi491ELi492ELi493ELi494ELi495ELi496ELi497ELi498ELi499ELi500ELi501ELi502ELi503ELi504ELi505ELi506ELi507ELi508ELi509ELi510ELi511ELi512ELi513ELi514ELi515ELi516ELi517ELi518ELi519ELi520ELi521ELi522ELi523ELi524ELi525ELi526ELi527ELi528ELi529ELi530ELi531ELi532ELi533ELi534ELi535ELi536ELi537ELi538ELi539ELi540ELi541ELi542ELi543ELi544ELi545ELi546ELi547ELi548ELi549ELi550ELi551ELi552ELi553ELi554ELi555ELi556ELi557ELi558ELi559ELi560ELi561ELi562ELi563ELi564ELi565ELi566ELi567ELi568ELi569ELi570ELi571ELi572ELi573ELi574ELi575ELi576ELi577ELi578ELi579ELi580ELi581ELi582ELi583ELi584ELi585ELi586ELi587ELi588ELi589ELi590ELi591ELi592ELi593ELi594ELi595ELi596ELi597ELi598ELi599ELi600ELi601ELi602ELi603ELi604ELi605ELi606ELi607ELi608ELi609ELi610ELi611ELi612ELi613ELi614ELi615ELi616ELi617ELi618ELi619ELi620ELi621ELi622ELi623ELi624ELi625ELi626ELi627ELi628ELi629ELi630ELi631ELi632ELi633ELi634ELi635ELi636ELi637ELi638ELi639ELi640ELi641ELi642ELi643ELi644ELi645ELi646ELi647ELi648ELi649ELi650ELi651ELi652ELi653ELi654ELi655ELi656ELi657ELi658ELi659ELi660ELi661ELi662ELi663ELi664ELi665ELi666ELi667ELi668ELi669ELi670ELi671ELi672ELi673ELi674ELi675ELi676ELi677ELi678ELi679ELi680ELi681ELi682ELi683ELi684ELi685ELi686ELi687ELi688ELi689ELi690ELi691ELi692ELi693ELi694ELi695ELi696ELi697ELi698ELi699ELi700ELi701ELi702ELi703ELi704ELi705ELi706ELi707ELi708ELi709ELi710ELi711ELi712ELi713ELi714ELi715ELi716ELi717ELi718ELi719ELi720ELi721ELi722ELi723ELi724ELi725ELi726ELi727ELi728ELi729ELi730ELi731ELi732ELi733ELi734ELi735ELi736ELi737ELi738ELi739ELi740ELi741ELi742ELi743ELi744ELi745ELi746ELi747ELi748ELi749ELi750ELi751ELi752ELi753ELi754ELi755ELi756ELi757ELi758ELi759ELi760ELi761ELi762ELi763ELi764ELi765ELi766ELi767ELi768ELi769ELi770ELi771ELi772ELi773ELi774ELi775ELi776ELi777ELi778ELi779ELi780ELi781ELi782ELi783ELi784ELi785ELi786ELi787ELi788ELi789ELi790ELi791ELi792ELi793ELi794ELi795ELi796ELi797ELi798ELi799ELi800ELi801ELi802ELi803ELi804ELi805ELi806ELi807ELi808ELi809ELi810ELi811ELi812ELi813ELi814ELi815ELi816ELi817ELi818ELi819ELi820ELi821ELi822ELi823ELi824ELi825ELi826ELi827ELi828ELi829ELi830ELi831ELi832ELi833ELi834ELi835ELi836ELi837ELi838ELi839ELi840ELi841ELi842ELi843ELi844ELi845ELi846ELi847ELi848ELi849ELi850ELi851ELi852ELi853ELi854ELi855ELi856ELi857ELi858ELi859ELi860ELi861ELi862ELi863ELi864ELi865ELi866ELi867ELi868ELi869ELi870ELi871ELi872ELi873ELi874ELi875ELi876ELi877ELi878ELi879ELi880ELi881ELi882ELi883ELi884ELi885ELi886ELi887ELi888ELi889ELi890ELi891ELi892ELi893ELi894ELi895ELi896ELi897ELi898ELi899ELi900ELi901ELi902ELi903ELi904ELi905ELi906ELi907ELi908ELi909ELi910ELi911ELi912ELi913ELi914ELi915ELi916ELi917ELi918ELi919ELi920ELi921ELi922ELi923ELi924ELi925ELi926ELi927ELi928ELi929ELi930ELi931ELi932ELi933ELi934ELi935ELi936ELi937ELi938ELi939ELi940ELi941ELi942ELi943ELi944ELi945ELi946ELi947ELi948ELi949ELi950ELi951ELi952ELi953ELi954ELi955ELi956ELi957ELi958ELi959ELi960ELi961ELi962ELi963ELi964ELi965ELi966ELi967ELi968ELi969ELi970ELi971ELi972ELi973ELi974ELi975ELi976ELi977ELi978ELi979ELi980ELi981ELi982ELi983ELi984ELi985ELi986ELi987ELi988ELi989ELi990ELi991ELi992ELi993ELi994ELi995ELi996ELi997ELi998ELi999ELi1000ELi1001EEE5valueE, symObjAddr: 0x0, symBinAddr: 0x514F0, symSize: 0x0 }
  - { offset: 0x704CF, size: 0x8, addend: 0x0, symName: _interp_coeff, symObjAddr: 0x2008, symBinAddr: 0x68280, symSize: 0x0 }
  - { offset: 0x704DF, size: 0x8, addend: 0x0, symName: __ZN17ConstExprArr_implI18InterpCubicFunctorLb1ELi0EJLi1ELi2ELi3ELi4ELi5ELi6ELi7ELi8ELi9ELi10ELi11ELi12ELi13ELi14ELi15ELi16ELi17ELi18ELi19ELi20ELi21ELi22ELi23ELi24ELi25ELi26ELi27ELi28ELi29ELi30ELi31ELi32ELi33ELi34ELi35ELi36ELi37ELi38ELi39ELi40ELi41ELi42ELi43ELi44ELi45ELi46ELi47ELi48ELi49ELi50ELi51ELi52ELi53ELi54ELi55ELi56ELi57ELi58ELi59ELi60ELi61ELi62ELi63ELi64ELi65ELi66ELi67ELi68ELi69ELi70ELi71ELi72ELi73ELi74ELi75ELi76ELi77ELi78ELi79ELi80ELi81ELi82ELi83ELi84ELi85ELi86ELi87ELi88ELi89ELi90ELi91ELi92ELi93ELi94ELi95ELi96ELi97ELi98ELi99ELi100ELi101ELi102ELi103ELi104ELi105ELi106ELi107ELi108ELi109ELi110ELi111ELi112ELi113ELi114ELi115ELi116ELi117ELi118ELi119ELi120ELi121ELi122ELi123ELi124ELi125ELi126ELi127ELi128ELi129ELi130ELi131ELi132ELi133ELi134ELi135ELi136ELi137ELi138ELi139ELi140ELi141ELi142ELi143ELi144ELi145ELi146ELi147ELi148ELi149ELi150ELi151ELi152ELi153ELi154ELi155ELi156ELi157ELi158ELi159ELi160ELi161ELi162ELi163ELi164ELi165ELi166ELi167ELi168ELi169ELi170ELi171ELi172ELi173ELi174ELi175ELi176ELi177ELi178ELi179ELi180ELi181ELi182ELi183ELi184ELi185ELi186ELi187ELi188ELi189ELi190ELi191ELi192ELi193ELi194ELi195ELi196ELi197ELi198ELi199ELi200ELi201ELi202ELi203ELi204ELi205ELi206ELi207ELi208ELi209ELi210ELi211ELi212ELi213ELi214ELi215ELi216ELi217ELi218ELi219ELi220ELi221ELi222ELi223ELi224ELi225ELi226ELi227ELi228ELi229ELi230ELi231ELi232ELi233ELi234ELi235ELi236ELi237ELi238ELi239ELi240ELi241ELi242ELi243ELi244ELi245ELi246ELi247ELi248ELi249ELi250ELi251ELi252ELi253ELi254ELi255ELi256ELi257ELi258ELi259ELi260ELi261ELi262ELi263ELi264ELi265ELi266ELi267ELi268ELi269ELi270ELi271ELi272ELi273ELi274ELi275ELi276ELi277ELi278ELi279ELi280ELi281ELi282ELi283ELi284ELi285ELi286ELi287ELi288ELi289ELi290ELi291ELi292ELi293ELi294ELi295ELi296ELi297ELi298ELi299ELi300ELi301ELi302ELi303ELi304ELi305ELi306ELi307ELi308ELi309ELi310ELi311ELi312ELi313ELi314ELi315ELi316ELi317ELi318ELi319ELi320ELi321ELi322ELi323ELi324ELi325ELi326ELi327ELi328ELi329ELi330ELi331ELi332ELi333ELi334ELi335ELi336ELi337ELi338ELi339ELi340ELi341ELi342ELi343ELi344ELi345ELi346ELi347ELi348ELi349ELi350ELi351ELi352ELi353ELi354ELi355ELi356ELi357ELi358ELi359ELi360ELi361ELi362ELi363ELi364ELi365ELi366ELi367ELi368ELi369ELi370ELi371ELi372ELi373ELi374ELi375ELi376ELi377ELi378ELi379ELi380ELi381ELi382ELi383ELi384ELi385ELi386ELi387ELi388ELi389ELi390ELi391ELi392ELi393ELi394ELi395ELi396ELi397ELi398ELi399ELi400ELi401ELi402ELi403ELi404ELi405ELi406ELi407ELi408ELi409ELi410ELi411ELi412ELi413ELi414ELi415ELi416ELi417ELi418ELi419ELi420ELi421ELi422ELi423ELi424ELi425ELi426ELi427ELi428ELi429ELi430ELi431ELi432ELi433ELi434ELi435ELi436ELi437ELi438ELi439ELi440ELi441ELi442ELi443ELi444ELi445ELi446ELi447ELi448ELi449ELi450ELi451ELi452ELi453ELi454ELi455ELi456ELi457ELi458ELi459ELi460ELi461ELi462ELi463ELi464ELi465ELi466ELi467ELi468ELi469ELi470ELi471ELi472ELi473ELi474ELi475ELi476ELi477ELi478ELi479ELi480ELi481ELi482ELi483ELi484ELi485ELi486ELi487ELi488ELi489ELi490ELi491ELi492ELi493ELi494ELi495ELi496ELi497ELi498ELi499ELi500ELi501ELi502ELi503ELi504ELi505ELi506ELi507ELi508ELi509ELi510ELi511ELi512ELi513ELi514ELi515ELi516ELi517ELi518ELi519ELi520ELi521ELi522ELi523ELi524ELi525ELi526ELi527ELi528ELi529ELi530ELi531ELi532ELi533ELi534ELi535ELi536ELi537ELi538ELi539ELi540ELi541ELi542ELi543ELi544ELi545ELi546ELi547ELi548ELi549ELi550ELi551ELi552ELi553ELi554ELi555ELi556ELi557ELi558ELi559ELi560ELi561ELi562ELi563ELi564ELi565ELi566ELi567ELi568ELi569ELi570ELi571ELi572ELi573ELi574ELi575ELi576ELi577ELi578ELi579ELi580ELi581ELi582ELi583ELi584ELi585ELi586ELi587ELi588ELi589ELi590ELi591ELi592ELi593ELi594ELi595ELi596ELi597ELi598ELi599ELi600ELi601ELi602ELi603ELi604ELi605ELi606ELi607ELi608ELi609ELi610ELi611ELi612ELi613ELi614ELi615ELi616ELi617ELi618ELi619ELi620ELi621ELi622ELi623ELi624ELi625ELi626ELi627ELi628ELi629ELi630ELi631ELi632ELi633ELi634ELi635ELi636ELi637ELi638ELi639ELi640ELi641ELi642ELi643ELi644ELi645ELi646ELi647ELi648ELi649ELi650ELi651ELi652ELi653ELi654ELi655ELi656ELi657ELi658ELi659ELi660ELi661ELi662ELi663ELi664ELi665ELi666ELi667ELi668ELi669ELi670ELi671ELi672ELi673ELi674ELi675ELi676ELi677ELi678ELi679ELi680ELi681ELi682ELi683ELi684ELi685ELi686ELi687ELi688ELi689ELi690ELi691ELi692ELi693ELi694ELi695ELi696ELi697ELi698ELi699ELi700ELi701ELi702ELi703ELi704ELi705ELi706ELi707ELi708ELi709ELi710ELi711ELi712ELi713ELi714ELi715ELi716ELi717ELi718ELi719ELi720ELi721ELi722ELi723ELi724ELi725ELi726ELi727ELi728ELi729ELi730ELi731ELi732ELi733ELi734ELi735ELi736ELi737ELi738ELi739ELi740ELi741ELi742ELi743ELi744ELi745ELi746ELi747ELi748ELi749ELi750ELi751ELi752ELi753ELi754ELi755ELi756ELi757ELi758ELi759ELi760ELi761ELi762ELi763ELi764ELi765ELi766ELi767ELi768ELi769ELi770ELi771ELi772ELi773ELi774ELi775ELi776ELi777ELi778ELi779ELi780ELi781ELi782ELi783ELi784ELi785ELi786ELi787ELi788ELi789ELi790ELi791ELi792ELi793ELi794ELi795ELi796ELi797ELi798ELi799ELi800ELi801ELi802ELi803ELi804ELi805ELi806ELi807ELi808ELi809ELi810ELi811ELi812ELi813ELi814ELi815ELi816ELi817ELi818ELi819ELi820ELi821ELi822ELi823ELi824ELi825ELi826ELi827ELi828ELi829ELi830ELi831ELi832ELi833ELi834ELi835ELi836ELi837ELi838ELi839ELi840ELi841ELi842ELi843ELi844ELi845ELi846ELi847ELi848ELi849ELi850ELi851ELi852ELi853ELi854ELi855ELi856ELi857ELi858ELi859ELi860ELi861ELi862ELi863ELi864ELi865ELi866ELi867ELi868ELi869ELi870ELi871ELi872ELi873ELi874ELi875ELi876ELi877ELi878ELi879ELi880ELi881ELi882ELi883ELi884ELi885ELi886ELi887ELi888ELi889ELi890ELi891ELi892ELi893ELi894ELi895ELi896ELi897ELi898ELi899ELi900ELi901ELi902ELi903ELi904ELi905ELi906ELi907ELi908ELi909ELi910ELi911ELi912ELi913ELi914ELi915ELi916ELi917ELi918ELi919ELi920ELi921ELi922ELi923ELi924ELi925ELi926ELi927ELi928ELi929ELi930ELi931ELi932ELi933ELi934ELi935ELi936ELi937ELi938ELi939ELi940ELi941ELi942ELi943ELi944ELi945ELi946ELi947ELi948ELi949ELi950ELi951ELi952ELi953ELi954ELi955ELi956ELi957ELi958ELi959ELi960ELi961ELi962ELi963ELi964ELi965ELi966ELi967ELi968ELi969ELi970ELi971ELi972ELi973ELi974ELi975ELi976ELi977ELi978ELi979ELi980ELi981ELi982ELi983ELi984ELi985ELi986ELi987ELi988ELi989ELi990ELi991ELi992ELi993ELi994ELi995ELi996ELi997ELi998ELi999ELi1000ELi1001ELi1002ELi1003ELi1004ELi1005ELi1006ELi1007ELi1008ELi1009ELi1010ELi1011ELi1012ELi1013ELi1014ELi1015ELi1016ELi1017ELi1018ELi1019ELi1020ELi1021ELi1022ELi1023EEE5valueE, symObjAddr: 0x0, symBinAddr: 0x53440, symSize: 0x0 }
  - { offset: 0x722C2, size: 0x8, addend: 0x0, symName: _interp_coeff_linear, symObjAddr: 0x1008, symBinAddr: 0x68288, symSize: 0x0 }
  - { offset: 0x722D2, size: 0x8, addend: 0x0, symName: __ZN17ConstExprArr_implI19InterpLinearFunctorLb1ELi0EJLi1ELi2ELi3ELi4ELi5ELi6ELi7ELi8ELi9ELi10ELi11ELi12ELi13ELi14ELi15ELi16ELi17ELi18ELi19ELi20ELi21ELi22ELi23ELi24ELi25ELi26ELi27ELi28ELi29ELi30ELi31ELi32ELi33ELi34ELi35ELi36ELi37ELi38ELi39ELi40ELi41ELi42ELi43ELi44ELi45ELi46ELi47ELi48ELi49ELi50ELi51ELi52ELi53ELi54ELi55ELi56ELi57ELi58ELi59ELi60ELi61ELi62ELi63ELi64ELi65ELi66ELi67ELi68ELi69ELi70ELi71ELi72ELi73ELi74ELi75ELi76ELi77ELi78ELi79ELi80ELi81ELi82ELi83ELi84ELi85ELi86ELi87ELi88ELi89ELi90ELi91ELi92ELi93ELi94ELi95ELi96ELi97ELi98ELi99ELi100ELi101ELi102ELi103ELi104ELi105ELi106ELi107ELi108ELi109ELi110ELi111ELi112ELi113ELi114ELi115ELi116ELi117ELi118ELi119ELi120ELi121ELi122ELi123ELi124ELi125ELi126ELi127ELi128ELi129ELi130ELi131ELi132ELi133ELi134ELi135ELi136ELi137ELi138ELi139ELi140ELi141ELi142ELi143ELi144ELi145ELi146ELi147ELi148ELi149ELi150ELi151ELi152ELi153ELi154ELi155ELi156ELi157ELi158ELi159ELi160ELi161ELi162ELi163ELi164ELi165ELi166ELi167ELi168ELi169ELi170ELi171ELi172ELi173ELi174ELi175ELi176ELi177ELi178ELi179ELi180ELi181ELi182ELi183ELi184ELi185ELi186ELi187ELi188ELi189ELi190ELi191ELi192ELi193ELi194ELi195ELi196ELi197ELi198ELi199ELi200ELi201ELi202ELi203ELi204ELi205ELi206ELi207ELi208ELi209ELi210ELi211ELi212ELi213ELi214ELi215ELi216ELi217ELi218ELi219ELi220ELi221ELi222ELi223ELi224ELi225ELi226ELi227ELi228ELi229ELi230ELi231ELi232ELi233ELi234ELi235ELi236ELi237ELi238ELi239ELi240ELi241ELi242ELi243ELi244ELi245ELi246ELi247ELi248ELi249ELi250ELi251ELi252ELi253ELi254ELi255ELi256ELi257ELi258ELi259ELi260ELi261ELi262ELi263ELi264ELi265ELi266ELi267ELi268ELi269ELi270ELi271ELi272ELi273ELi274ELi275ELi276ELi277ELi278ELi279ELi280ELi281ELi282ELi283ELi284ELi285ELi286ELi287ELi288ELi289ELi290ELi291ELi292ELi293ELi294ELi295ELi296ELi297ELi298ELi299ELi300ELi301ELi302ELi303ELi304ELi305ELi306ELi307ELi308ELi309ELi310ELi311ELi312ELi313ELi314ELi315ELi316ELi317ELi318ELi319ELi320ELi321ELi322ELi323ELi324ELi325ELi326ELi327ELi328ELi329ELi330ELi331ELi332ELi333ELi334ELi335ELi336ELi337ELi338ELi339ELi340ELi341ELi342ELi343ELi344ELi345ELi346ELi347ELi348ELi349ELi350ELi351ELi352ELi353ELi354ELi355ELi356ELi357ELi358ELi359ELi360ELi361ELi362ELi363ELi364ELi365ELi366ELi367ELi368ELi369ELi370ELi371ELi372ELi373ELi374ELi375ELi376ELi377ELi378ELi379ELi380ELi381ELi382ELi383ELi384ELi385ELi386ELi387ELi388ELi389ELi390ELi391ELi392ELi393ELi394ELi395ELi396ELi397ELi398ELi399ELi400ELi401ELi402ELi403ELi404ELi405ELi406ELi407ELi408ELi409ELi410ELi411ELi412ELi413ELi414ELi415ELi416ELi417ELi418ELi419ELi420ELi421ELi422ELi423ELi424ELi425ELi426ELi427ELi428ELi429ELi430ELi431ELi432ELi433ELi434ELi435ELi436ELi437ELi438ELi439ELi440ELi441ELi442ELi443ELi444ELi445ELi446ELi447ELi448ELi449ELi450ELi451ELi452ELi453ELi454ELi455ELi456ELi457ELi458ELi459ELi460ELi461ELi462ELi463ELi464ELi465ELi466ELi467ELi468ELi469ELi470ELi471ELi472ELi473ELi474ELi475ELi476ELi477ELi478ELi479ELi480ELi481ELi482ELi483ELi484ELi485ELi486ELi487ELi488ELi489ELi490ELi491ELi492ELi493ELi494ELi495ELi496ELi497ELi498ELi499ELi500ELi501ELi502ELi503ELi504ELi505ELi506ELi507ELi508ELi509ELi510ELi511EEE5valueE, symObjAddr: 0x0, symBinAddr: 0x55440, symSize: 0x0 }
  - { offset: 0x732B5, size: 0x8, addend: 0x0, symName: _sinc_table7, symObjAddr: 0x3808, symBinAddr: 0x68290, symSize: 0x0 }
  - { offset: 0x732C5, size: 0x8, addend: 0x0, symName: __ZN17ConstExprArr_implI17InterpSincFunctorLb1ELi0EJLi1ELi2ELi3ELi4ELi5ELi6ELi7ELi8ELi9ELi10ELi11ELi12ELi13ELi14ELi15ELi16ELi17ELi18ELi19ELi20ELi21ELi22ELi23ELi24ELi25ELi26ELi27ELi28ELi29ELi30ELi31ELi32ELi33ELi34ELi35ELi36ELi37ELi38ELi39ELi40ELi41ELi42ELi43ELi44ELi45ELi46ELi47ELi48ELi49ELi50ELi51ELi52ELi53ELi54ELi55ELi56ELi57ELi58ELi59ELi60ELi61ELi62ELi63ELi64ELi65ELi66ELi67ELi68ELi69ELi70ELi71ELi72ELi73ELi74ELi75ELi76ELi77ELi78ELi79ELi80ELi81ELi82ELi83ELi84ELi85ELi86ELi87ELi88ELi89ELi90ELi91ELi92ELi93ELi94ELi95ELi96ELi97ELi98ELi99ELi100ELi101ELi102ELi103ELi104ELi105ELi106ELi107ELi108ELi109ELi110ELi111ELi112ELi113ELi114ELi115ELi116ELi117ELi118ELi119ELi120ELi121ELi122ELi123ELi124ELi125ELi126ELi127ELi128ELi129ELi130ELi131ELi132ELi133ELi134ELi135ELi136ELi137ELi138ELi139ELi140ELi141ELi142ELi143ELi144ELi145ELi146ELi147ELi148ELi149ELi150ELi151ELi152ELi153ELi154ELi155ELi156ELi157ELi158ELi159ELi160ELi161ELi162ELi163ELi164ELi165ELi166ELi167ELi168ELi169ELi170ELi171ELi172ELi173ELi174ELi175ELi176ELi177ELi178ELi179ELi180ELi181ELi182ELi183ELi184ELi185ELi186ELi187ELi188ELi189ELi190ELi191ELi192ELi193ELi194ELi195ELi196ELi197ELi198ELi199ELi200ELi201ELi202ELi203ELi204ELi205ELi206ELi207ELi208ELi209ELi210ELi211ELi212ELi213ELi214ELi215ELi216ELi217ELi218ELi219ELi220ELi221ELi222ELi223ELi224ELi225ELi226ELi227ELi228ELi229ELi230ELi231ELi232ELi233ELi234ELi235ELi236ELi237ELi238ELi239ELi240ELi241ELi242ELi243ELi244ELi245ELi246ELi247ELi248ELi249ELi250ELi251ELi252ELi253ELi254ELi255ELi256ELi257ELi258ELi259ELi260ELi261ELi262ELi263ELi264ELi265ELi266ELi267ELi268ELi269ELi270ELi271ELi272ELi273ELi274ELi275ELi276ELi277ELi278ELi279ELi280ELi281ELi282ELi283ELi284ELi285ELi286ELi287ELi288ELi289ELi290ELi291ELi292ELi293ELi294ELi295ELi296ELi297ELi298ELi299ELi300ELi301ELi302ELi303ELi304ELi305ELi306ELi307ELi308ELi309ELi310ELi311ELi312ELi313ELi314ELi315ELi316ELi317ELi318ELi319ELi320ELi321ELi322ELi323ELi324ELi325ELi326ELi327ELi328ELi329ELi330ELi331ELi332ELi333ELi334ELi335ELi336ELi337ELi338ELi339ELi340ELi341ELi342ELi343ELi344ELi345ELi346ELi347ELi348ELi349ELi350ELi351ELi352ELi353ELi354ELi355ELi356ELi357ELi358ELi359ELi360ELi361ELi362ELi363ELi364ELi365ELi366ELi367ELi368ELi369ELi370ELi371ELi372ELi373ELi374ELi375ELi376ELi377ELi378ELi379ELi380ELi381ELi382ELi383ELi384ELi385ELi386ELi387ELi388ELi389ELi390ELi391ELi392ELi393ELi394ELi395ELi396ELi397ELi398ELi399ELi400ELi401ELi402ELi403ELi404ELi405ELi406ELi407ELi408ELi409ELi410ELi411ELi412ELi413ELi414ELi415ELi416ELi417ELi418ELi419ELi420ELi421ELi422ELi423ELi424ELi425ELi426ELi427ELi428ELi429ELi430ELi431ELi432ELi433ELi434ELi435ELi436ELi437ELi438ELi439ELi440ELi441ELi442ELi443ELi444ELi445ELi446ELi447ELi448ELi449ELi450ELi451ELi452ELi453ELi454ELi455ELi456ELi457ELi458ELi459ELi460ELi461ELi462ELi463ELi464ELi465ELi466ELi467ELi468ELi469ELi470ELi471ELi472ELi473ELi474ELi475ELi476ELi477ELi478ELi479ELi480ELi481ELi482ELi483ELi484ELi485ELi486ELi487ELi488ELi489ELi490ELi491ELi492ELi493ELi494ELi495ELi496ELi497ELi498ELi499ELi500ELi501ELi502ELi503ELi504ELi505ELi506ELi507ELi508ELi509ELi510ELi511ELi512ELi513ELi514ELi515ELi516ELi517ELi518ELi519ELi520ELi521ELi522ELi523ELi524ELi525ELi526ELi527ELi528ELi529ELi530ELi531ELi532ELi533ELi534ELi535ELi536ELi537ELi538ELi539ELi540ELi541ELi542ELi543ELi544ELi545ELi546ELi547ELi548ELi549ELi550ELi551ELi552ELi553ELi554ELi555ELi556ELi557ELi558ELi559ELi560ELi561ELi562ELi563ELi564ELi565ELi566ELi567ELi568ELi569ELi570ELi571ELi572ELi573ELi574ELi575ELi576ELi577ELi578ELi579ELi580ELi581ELi582ELi583ELi584ELi585ELi586ELi587ELi588ELi589ELi590ELi591ELi592ELi593ELi594ELi595ELi596ELi597ELi598ELi599ELi600ELi601ELi602ELi603ELi604ELi605ELi606ELi607ELi608ELi609ELi610ELi611ELi612ELi613ELi614ELi615ELi616ELi617ELi618ELi619ELi620ELi621ELi622ELi623ELi624ELi625ELi626ELi627ELi628ELi629ELi630ELi631ELi632ELi633ELi634ELi635ELi636ELi637ELi638ELi639ELi640ELi641ELi642ELi643ELi644ELi645ELi646ELi647ELi648ELi649ELi650ELi651ELi652ELi653ELi654ELi655ELi656ELi657ELi658ELi659ELi660ELi661ELi662ELi663ELi664ELi665ELi666ELi667ELi668ELi669ELi670ELi671ELi672ELi673ELi674ELi675ELi676ELi677ELi678ELi679ELi680ELi681ELi682ELi683ELi684ELi685ELi686ELi687ELi688ELi689ELi690ELi691ELi692ELi693ELi694ELi695ELi696ELi697ELi698ELi699ELi700ELi701ELi702ELi703ELi704ELi705ELi706ELi707ELi708ELi709ELi710ELi711ELi712ELi713ELi714ELi715ELi716ELi717ELi718ELi719ELi720ELi721ELi722ELi723ELi724ELi725ELi726ELi727ELi728ELi729ELi730ELi731ELi732ELi733ELi734ELi735ELi736ELi737ELi738ELi739ELi740ELi741ELi742ELi743ELi744ELi745ELi746ELi747ELi748ELi749ELi750ELi751ELi752ELi753ELi754ELi755ELi756ELi757ELi758ELi759ELi760ELi761ELi762ELi763ELi764ELi765ELi766ELi767ELi768ELi769ELi770ELi771ELi772ELi773ELi774ELi775ELi776ELi777ELi778ELi779ELi780ELi781ELi782ELi783ELi784ELi785ELi786ELi787ELi788ELi789ELi790ELi791ELi792ELi793ELi794ELi795ELi796ELi797ELi798ELi799ELi800ELi801ELi802ELi803ELi804ELi805ELi806ELi807ELi808ELi809ELi810ELi811ELi812ELi813ELi814ELi815ELi816ELi817ELi818ELi819ELi820ELi821ELi822ELi823ELi824ELi825ELi826ELi827ELi828ELi829ELi830ELi831ELi832ELi833ELi834ELi835ELi836ELi837ELi838ELi839ELi840ELi841ELi842ELi843ELi844ELi845ELi846ELi847ELi848ELi849ELi850ELi851ELi852ELi853ELi854ELi855ELi856ELi857ELi858ELi859ELi860ELi861ELi862ELi863ELi864ELi865ELi866ELi867ELi868ELi869ELi870ELi871ELi872ELi873ELi874ELi875ELi876ELi877ELi878ELi879ELi880ELi881ELi882ELi883ELi884ELi885ELi886ELi887ELi888ELi889ELi890ELi891ELi892ELi893ELi894ELi895ELi896ELi897ELi898ELi899ELi900ELi901ELi902ELi903ELi904ELi905ELi906ELi907ELi908ELi909ELi910ELi911ELi912ELi913ELi914ELi915ELi916ELi917ELi918ELi919ELi920ELi921ELi922ELi923ELi924ELi925ELi926ELi927ELi928ELi929ELi930ELi931ELi932ELi933ELi934ELi935ELi936ELi937ELi938ELi939ELi940ELi941ELi942ELi943ELi944ELi945ELi946ELi947ELi948ELi949ELi950ELi951ELi952ELi953ELi954ELi955ELi956ELi957ELi958ELi959ELi960ELi961ELi962ELi963ELi964ELi965ELi966ELi967ELi968ELi969ELi970ELi971ELi972ELi973ELi974ELi975ELi976ELi977ELi978ELi979ELi980ELi981ELi982ELi983ELi984ELi985ELi986ELi987ELi988ELi989ELi990ELi991ELi992ELi993ELi994ELi995ELi996ELi997ELi998ELi999ELi1000ELi1001ELi1002ELi1003ELi1004ELi1005ELi1006ELi1007ELi1008ELi1009ELi1010ELi1011ELi1012ELi1013ELi1014ELi1015ELi1016ELi1017ELi1018ELi1019ELi1020ELi1021ELi1022ELi1023ELi1024ELi1025ELi1026ELi1027ELi1028ELi1029ELi1030ELi1031ELi1032ELi1033ELi1034ELi1035ELi1036ELi1037ELi1038ELi1039ELi1040ELi1041ELi1042ELi1043ELi1044ELi1045ELi1046ELi1047ELi1048ELi1049ELi1050ELi1051ELi1052ELi1053ELi1054ELi1055ELi1056ELi1057ELi1058ELi1059ELi1060ELi1061ELi1062ELi1063ELi1064ELi1065ELi1066ELi1067ELi1068ELi1069ELi1070ELi1071ELi1072ELi1073ELi1074ELi1075ELi1076ELi1077ELi1078ELi1079ELi1080ELi1081ELi1082ELi1083ELi1084ELi1085ELi1086ELi1087ELi1088ELi1089ELi1090ELi1091ELi1092ELi1093ELi1094ELi1095ELi1096ELi1097ELi1098ELi1099ELi1100ELi1101ELi1102ELi1103ELi1104ELi1105ELi1106ELi1107ELi1108ELi1109ELi1110ELi1111ELi1112ELi1113ELi1114ELi1115ELi1116ELi1117ELi1118ELi1119ELi1120ELi1121ELi1122ELi1123ELi1124ELi1125ELi1126ELi1127ELi1128ELi1129ELi1130ELi1131ELi1132ELi1133ELi1134ELi1135ELi1136ELi1137ELi1138ELi1139ELi1140ELi1141ELi1142ELi1143ELi1144ELi1145ELi1146ELi1147ELi1148ELi1149ELi1150ELi1151ELi1152ELi1153ELi1154ELi1155ELi1156ELi1157ELi1158ELi1159ELi1160ELi1161ELi1162ELi1163ELi1164ELi1165ELi1166ELi1167ELi1168ELi1169ELi1170ELi1171ELi1172ELi1173ELi1174ELi1175ELi1176ELi1177ELi1178ELi1179ELi1180ELi1181ELi1182ELi1183ELi1184ELi1185ELi1186ELi1187ELi1188ELi1189ELi1190ELi1191ELi1192ELi1193ELi1194ELi1195ELi1196ELi1197ELi1198ELi1199ELi1200ELi1201ELi1202ELi1203ELi1204ELi1205ELi1206ELi1207ELi1208ELi1209ELi1210ELi1211ELi1212ELi1213ELi1214ELi1215ELi1216ELi1217ELi1218ELi1219ELi1220ELi1221ELi1222ELi1223ELi1224ELi1225ELi1226ELi1227ELi1228ELi1229ELi1230ELi1231ELi1232ELi1233ELi1234ELi1235ELi1236ELi1237ELi1238ELi1239ELi1240ELi1241ELi1242ELi1243ELi1244ELi1245ELi1246ELi1247ELi1248ELi1249ELi1250ELi1251ELi1252ELi1253ELi1254ELi1255ELi1256ELi1257ELi1258ELi1259ELi1260ELi1261ELi1262ELi1263ELi1264ELi1265ELi1266ELi1267ELi1268ELi1269ELi1270ELi1271ELi1272ELi1273ELi1274ELi1275ELi1276ELi1277ELi1278ELi1279ELi1280ELi1281ELi1282ELi1283ELi1284ELi1285ELi1286ELi1287ELi1288ELi1289ELi1290ELi1291ELi1292ELi1293ELi1294ELi1295ELi1296ELi1297ELi1298ELi1299ELi1300ELi1301ELi1302ELi1303ELi1304ELi1305ELi1306ELi1307ELi1308ELi1309ELi1310ELi1311ELi1312ELi1313ELi1314ELi1315ELi1316ELi1317ELi1318ELi1319ELi1320ELi1321ELi1322ELi1323ELi1324ELi1325ELi1326ELi1327ELi1328ELi1329ELi1330ELi1331ELi1332ELi1333ELi1334ELi1335ELi1336ELi1337ELi1338ELi1339ELi1340ELi1341ELi1342ELi1343ELi1344ELi1345ELi1346ELi1347ELi1348ELi1349ELi1350ELi1351ELi1352ELi1353ELi1354ELi1355ELi1356ELi1357ELi1358ELi1359ELi1360ELi1361ELi1362ELi1363ELi1364ELi1365ELi1366ELi1367ELi1368ELi1369ELi1370ELi1371ELi1372ELi1373ELi1374ELi1375ELi1376ELi1377ELi1378ELi1379ELi1380ELi1381ELi1382ELi1383ELi1384ELi1385ELi1386ELi1387ELi1388ELi1389ELi1390ELi1391ELi1392ELi1393ELi1394ELi1395ELi1396ELi1397ELi1398ELi1399ELi1400ELi1401ELi1402ELi1403ELi1404ELi1405ELi1406ELi1407ELi1408ELi1409ELi1410ELi1411ELi1412ELi1413ELi1414ELi1415ELi1416ELi1417ELi1418ELi1419ELi1420ELi1421ELi1422ELi1423ELi1424ELi1425ELi1426ELi1427ELi1428ELi1429ELi1430ELi1431ELi1432ELi1433ELi1434ELi1435ELi1436ELi1437ELi1438ELi1439ELi1440ELi1441ELi1442ELi1443ELi1444ELi1445ELi1446ELi1447ELi1448ELi1449ELi1450ELi1451ELi1452ELi1453ELi1454ELi1455ELi1456ELi1457ELi1458ELi1459ELi1460ELi1461ELi1462ELi1463ELi1464ELi1465ELi1466ELi1467ELi1468ELi1469ELi1470ELi1471ELi1472ELi1473ELi1474ELi1475ELi1476ELi1477ELi1478ELi1479ELi1480ELi1481ELi1482ELi1483ELi1484ELi1485ELi1486ELi1487ELi1488ELi1489ELi1490ELi1491ELi1492ELi1493ELi1494ELi1495ELi1496ELi1497ELi1498ELi1499ELi1500ELi1501ELi1502ELi1503ELi1504ELi1505ELi1506ELi1507ELi1508ELi1509ELi1510ELi1511ELi1512ELi1513ELi1514ELi1515ELi1516ELi1517ELi1518ELi1519ELi1520ELi1521ELi1522ELi1523ELi1524ELi1525ELi1526ELi1527ELi1528ELi1529ELi1530ELi1531ELi1532ELi1533ELi1534ELi1535ELi1536ELi1537ELi1538ELi1539ELi1540ELi1541ELi1542ELi1543ELi1544ELi1545ELi1546ELi1547ELi1548ELi1549ELi1550ELi1551ELi1552ELi1553ELi1554ELi1555ELi1556ELi1557ELi1558ELi1559ELi1560ELi1561ELi1562ELi1563ELi1564ELi1565ELi1566ELi1567ELi1568ELi1569ELi1570ELi1571ELi1572ELi1573ELi1574ELi1575ELi1576ELi1577ELi1578ELi1579ELi1580ELi1581ELi1582ELi1583ELi1584ELi1585ELi1586ELi1587ELi1588ELi1589ELi1590ELi1591ELi1592ELi1593ELi1594ELi1595ELi1596ELi1597ELi1598ELi1599ELi1600ELi1601ELi1602ELi1603ELi1604ELi1605ELi1606ELi1607ELi1608ELi1609ELi1610ELi1611ELi1612ELi1613ELi1614ELi1615ELi1616ELi1617ELi1618ELi1619ELi1620ELi1621ELi1622ELi1623ELi1624ELi1625ELi1626ELi1627ELi1628ELi1629ELi1630ELi1631ELi1632ELi1633ELi1634ELi1635ELi1636ELi1637ELi1638ELi1639ELi1640ELi1641ELi1642ELi1643ELi1644ELi1645ELi1646ELi1647ELi1648ELi1649ELi1650ELi1651ELi1652ELi1653ELi1654ELi1655ELi1656ELi1657ELi1658ELi1659ELi1660ELi1661ELi1662ELi1663ELi1664ELi1665ELi1666ELi1667ELi1668ELi1669ELi1670ELi1671ELi1672ELi1673ELi1674ELi1675ELi1676ELi1677ELi1678ELi1679ELi1680ELi1681ELi1682ELi1683ELi1684ELi1685ELi1686ELi1687ELi1688ELi1689ELi1690ELi1691ELi1692ELi1693ELi1694ELi1695ELi1696ELi1697ELi1698ELi1699ELi1700ELi1701ELi1702ELi1703ELi1704ELi1705ELi1706ELi1707ELi1708ELi1709ELi1710ELi1711ELi1712ELi1713ELi1714ELi1715ELi1716ELi1717ELi1718ELi1719ELi1720ELi1721ELi1722ELi1723ELi1724ELi1725ELi1726ELi1727ELi1728ELi1729ELi1730ELi1731ELi1732ELi1733ELi1734ELi1735ELi1736ELi1737ELi1738ELi1739ELi1740ELi1741ELi1742ELi1743ELi1744ELi1745ELi1746ELi1747ELi1748ELi1749ELi1750ELi1751ELi1752ELi1753ELi1754ELi1755ELi1756ELi1757ELi1758ELi1759ELi1760ELi1761ELi1762ELi1763ELi1764ELi1765ELi1766ELi1767ELi1768ELi1769ELi1770ELi1771ELi1772ELi1773ELi1774ELi1775ELi1776ELi1777ELi1778ELi1779ELi1780ELi1781ELi1782ELi1783ELi1784ELi1785ELi1786ELi1787ELi1788ELi1789ELi1790ELi1791EEE5valueE, symObjAddr: 0x0, symBinAddr: 0x56440, symSize: 0x0 }
  - { offset: 0x76582, size: 0x8, addend: 0x0, symName: _fluid_ct2hz_real, symObjAddr: 0x0, symBinAddr: 0x128D0, symSize: 0xC4 }
  - { offset: 0x765B0, size: 0x8, addend: 0x0, symName: _fluid_ct2hz_real, symObjAddr: 0x0, symBinAddr: 0x128D0, symSize: 0xC4 }
  - { offset: 0x76636, size: 0x8, addend: 0x0, symName: _fluid_ct2hz, symObjAddr: 0xC4, symBinAddr: 0x12994, symSize: 0xF4 }
  - { offset: 0x7669A, size: 0x8, addend: 0x0, symName: _fluid_cb2amp, symObjAddr: 0x1B8, symBinAddr: 0x12A88, symSize: 0x4C }
  - { offset: 0x766D0, size: 0x8, addend: 0x0, symName: _fluid_tc2sec_delay, symObjAddr: 0x204, symBinAddr: 0x12AD4, symSize: 0x54 }
  - { offset: 0x76719, size: 0x8, addend: 0x0, symName: _fluid_tc2sec, symObjAddr: 0x258, symBinAddr: 0x12B28, symSize: 0x14 }
  - { offset: 0x76736, size: 0x8, addend: 0x0, symName: _fluid_tc2sec_attack, symObjAddr: 0x26C, symBinAddr: 0x12B3C, symSize: 0x54 }
  - { offset: 0x7677E, size: 0x8, addend: 0x0, symName: _fluid_sec2tc, symObjAddr: 0x2C0, symBinAddr: 0x12B90, symSize: 0x50 }
  - { offset: 0x767B6, size: 0x8, addend: 0x0, symName: _fluid_hz2ct, symObjAddr: 0x364, symBinAddr: 0x12BE0, symSize: 0x48 }
  - { offset: 0x767E2, size: 0x8, addend: 0x0, symName: _fluid_pan, symObjAddr: 0x3E8, symBinAddr: 0x12C28, symSize: 0x58 }
  - { offset: 0x76836, size: 0x8, addend: 0x0, symName: _fluid_balance, symObjAddr: 0x440, symBinAddr: 0x12C80, symSize: 0x7C }
  - { offset: 0x7688F, size: 0x8, addend: 0x0, symName: _fluid_concave, symObjAddr: 0x4BC, symBinAddr: 0x12CFC, symSize: 0x4C }
  - { offset: 0x768CB, size: 0x8, addend: 0x0, symName: _fluid_convex, symObjAddr: 0x508, symBinAddr: 0x12D48, symSize: 0x4C }
  - { offset: 0x76AB4, size: 0x8, addend: 0x0, symName: _new_fluid_hashtable_full, symObjAddr: 0xC, symBinAddr: 0x12D94, symSize: 0x10C }
  - { offset: 0x76C53, size: 0x8, addend: 0x0, symName: _delete_fluid_hashtable, symObjAddr: 0x11C, symBinAddr: 0x12EA4, symSize: 0xE8 }
  - { offset: 0x76D7B, size: 0x8, addend: 0x0, symName: _fluid_direct_hash, symObjAddr: 0x118, symBinAddr: 0x12EA0, symSize: 0x4 }
  - { offset: 0x76E79, size: 0x8, addend: 0x0, symName: _fluid_hashtable_maybe_resize, symObjAddr: 0xB2C, symBinAddr: 0x13310, symSize: 0x2E8 }
  - { offset: 0x76F67, size: 0x8, addend: 0x0, symName: _fluid_hashtable_unref, symObjAddr: 0x4CC, symBinAddr: 0x12F8C, symSize: 0x10C }
  - { offset: 0x77115, size: 0x8, addend: 0x0, symName: _fluid_hashtable_lookup, symObjAddr: 0x688, symBinAddr: 0x13098, symSize: 0xC0 }
  - { offset: 0x771C2, size: 0x8, addend: 0x0, symName: _fluid_hashtable_insert, symObjAddr: 0x830, symBinAddr: 0x13158, symSize: 0x8 }
  - { offset: 0x7722F, size: 0x8, addend: 0x0, symName: _fluid_hashtable_insert_internal, symObjAddr: 0x838, symBinAddr: 0x13160, symSize: 0x1B0 }
  - { offset: 0x77469, size: 0x8, addend: 0x0, symName: _fluid_hashtable_foreach, symObjAddr: 0xF78, symBinAddr: 0x135F8, symSize: 0x84 }
  - { offset: 0x774E2, size: 0x8, addend: 0x0, symName: _fluid_str_equal, symObjAddr: 0x119C, symBinAddr: 0x1367C, symSize: 0x1C }
  - { offset: 0x77570, size: 0x8, addend: 0x0, symName: _fluid_str_hash, symObjAddr: 0x11B8, symBinAddr: 0x13698, symSize: 0x30 }
  - { offset: 0x7766A, size: 0x8, addend: 0x0, symName: _delete_fluid_list, symObjAddr: 0x1C, symBinAddr: 0x136C8, symSize: 0x2C }
  - { offset: 0x776AA, size: 0x8, addend: 0x0, symName: _delete1_fluid_list, symObjAddr: 0x48, symBinAddr: 0x136F4, symSize: 0x4 }
  - { offset: 0x776D0, size: 0x8, addend: 0x0, symName: _delete1_fluid_list, symObjAddr: 0x48, symBinAddr: 0x136F4, symSize: 0x4 }
  - { offset: 0x77714, size: 0x8, addend: 0x0, symName: _fluid_list_append, symObjAddr: 0x4C, symBinAddr: 0x136F8, symSize: 0x60 }
  - { offset: 0x777B9, size: 0x8, addend: 0x0, symName: _fluid_list_prepend, symObjAddr: 0xD0, symBinAddr: 0x13758, symSize: 0x2C }
  - { offset: 0x77828, size: 0x8, addend: 0x0, symName: _fluid_list_nth, symObjAddr: 0xFC, symBinAddr: 0x13784, symSize: 0x24 }
  - { offset: 0x7787D, size: 0x8, addend: 0x0, symName: _fluid_list_remove, symObjAddr: 0x120, symBinAddr: 0x137A8, symSize: 0x94 }
  - { offset: 0x77908, size: 0x8, addend: 0x0, symName: _fluid_list_remove_link, symObjAddr: 0x1B4, symBinAddr: 0x1383C, symSize: 0x60 }
  - { offset: 0x779CC, size: 0x8, addend: 0x0, symName: _fluid_list_sort, symObjAddr: 0x214, symBinAddr: 0x1389C, symSize: 0x10C }
  - { offset: 0x77A9C, size: 0x8, addend: 0x0, symName: _fluid_list_size, symObjAddr: 0x320, symBinAddr: 0x139A8, symSize: 0x1C }
  - { offset: 0x77AD7, size: 0x8, addend: 0x0, symName: _fluid_list_insert_at, symObjAddr: 0x33C, symBinAddr: 0x139C4, symSize: 0x84 }
  - { offset: 0x77B85, size: 0x8, addend: 0x0, symName: _fluid_list_str_compare_func, symObjAddr: 0x3C0, symBinAddr: 0x13A48, symSize: 0x20 }
  - { offset: 0x77C19, size: 0x8, addend: 0x0, symName: _new_fluid_ringbuffer, symObjAddr: 0x0, symBinAddr: 0x13A68, symSize: 0x100 }
  - { offset: 0x77D16, size: 0x8, addend: 0x0, symName: _new_fluid_ringbuffer, symObjAddr: 0x0, symBinAddr: 0x13A68, symSize: 0x100 }
  - { offset: 0x77E99, size: 0x8, addend: 0x0, symName: _delete_fluid_ringbuffer, symObjAddr: 0x100, symBinAddr: 0x13B68, symSize: 0x34 }
  - { offset: 0x77EF6, size: 0x8, addend: 0x0, symName: _new_fluid_settings, symObjAddr: 0x0, symBinAddr: 0x13B9C, symSize: 0x80 }
  - { offset: 0x782CE, size: 0x8, addend: 0x0, symName: _new_fluid_settings, symObjAddr: 0x0, symBinAddr: 0x13B9C, symSize: 0x80 }
  - { offset: 0x78432, size: 0x8, addend: 0x0, symName: _fluid_settings_key_destroy_func, symObjAddr: 0x80, symBinAddr: 0x13C1C, symSize: 0x4 }
  - { offset: 0x7845B, size: 0x8, addend: 0x0, symName: _fluid_settings_key_destroy_func, symObjAddr: 0x80, symBinAddr: 0x13C1C, symSize: 0x4 }
  - { offset: 0x784B3, size: 0x8, addend: 0x0, symName: _fluid_settings_value_destroy_func, symObjAddr: 0x84, symBinAddr: 0x13C20, symSize: 0x94 }
  - { offset: 0x785A6, size: 0x8, addend: 0x0, symName: _delete_fluid_settings, symObjAddr: 0x118, symBinAddr: 0x13CB4, symSize: 0x34 }
  - { offset: 0x786D6, size: 0x8, addend: 0x0, symName: _fluid_settings_register_str, symObjAddr: 0x14C, symBinAddr: 0x13CE8, symSize: 0x25C }
  - { offset: 0x789AC, size: 0x8, addend: 0x0, symName: _fluid_settings_tokenize, symObjAddr: 0x2E84, symBinAddr: 0x16788, symSize: 0x214 }
  - { offset: 0x78B70, size: 0x8, addend: 0x0, symName: _fluid_settings_set, symObjAddr: 0x3A8, symBinAddr: 0x13F44, symSize: 0x22C }
  - { offset: 0x78E88, size: 0x8, addend: 0x0, symName: _fluid_settings_register_num, symObjAddr: 0x5D4, symBinAddr: 0x14170, symSize: 0x1C8 }
  - { offset: 0x79134, size: 0x8, addend: 0x0, symName: _fluid_settings_register_int, symObjAddr: 0x79C, symBinAddr: 0x14338, symSize: 0x1C4 }
  - { offset: 0x79376, size: 0x8, addend: 0x0, symName: _fluid_settings_callback_str, symObjAddr: 0x960, symBinAddr: 0x144FC, symSize: 0x120 }
  - { offset: 0x79494, size: 0x8, addend: 0x0, symName: _fluid_settings_callback_num, symObjAddr: 0xA80, symBinAddr: 0x1461C, symSize: 0x11C }
  - { offset: 0x795B2, size: 0x8, addend: 0x0, symName: _fluid_settings_callback_int, symObjAddr: 0xB9C, symBinAddr: 0x14738, symSize: 0x120 }
  - { offset: 0x796D0, size: 0x8, addend: 0x0, symName: _fluid_settings_get_type, symObjAddr: 0xE00, symBinAddr: 0x14858, symSize: 0x100 }
  - { offset: 0x797CE, size: 0x8, addend: 0x0, symName: _fluid_settings_get_hints, symObjAddr: 0xF00, symBinAddr: 0x14958, symSize: 0x130 }
  - { offset: 0x798FB, size: 0x8, addend: 0x0, symName: _fluid_settings_is_realtime, symObjAddr: 0x1030, symBinAddr: 0x14A88, symSize: 0x138 }
  - { offset: 0x79A56, size: 0x8, addend: 0x0, symName: _fluid_settings_setstr, symObjAddr: 0x1168, symBinAddr: 0x14BC0, symSize: 0x1A0 }
  - { offset: 0x79C0E, size: 0x8, addend: 0x0, symName: _fluid_settings_copystr, symObjAddr: 0x1308, symBinAddr: 0x14D60, symSize: 0x184 }
  - { offset: 0x79D58, size: 0x8, addend: 0x0, symName: _fluid_settings_dupstr, symObjAddr: 0x148C, symBinAddr: 0x14EE4, symSize: 0x1E8 }
  - { offset: 0x79EE8, size: 0x8, addend: 0x0, symName: _fluid_settings_str_equal, symObjAddr: 0x1674, symBinAddr: 0x150CC, symSize: 0x160 }
  - { offset: 0x7A04E, size: 0x8, addend: 0x0, symName: _fluid_settings_getstr_default, symObjAddr: 0x17D4, symBinAddr: 0x1522C, symSize: 0x148 }
  - { offset: 0x7A191, size: 0x8, addend: 0x0, symName: _fluid_settings_add_option, symObjAddr: 0x191C, symBinAddr: 0x15374, symSize: 0x154 }
  - { offset: 0x7A319, size: 0x8, addend: 0x0, symName: _fluid_settings_setnum, symObjAddr: 0x1BC4, symBinAddr: 0x154C8, symSize: 0x184 }
  - { offset: 0x7A48D, size: 0x8, addend: 0x0, symName: _fluid_settings_getnum, symObjAddr: 0x1D48, symBinAddr: 0x1564C, symSize: 0x118 }
  - { offset: 0x7A5E8, size: 0x8, addend: 0x0, symName: _fluid_settings_getnum_float, symObjAddr: 0x1E60, symBinAddr: 0x15764, symSize: 0x138 }
  - { offset: 0x7A734, size: 0x8, addend: 0x0, symName: _fluid_settings_getnum_range, symObjAddr: 0x1F98, symBinAddr: 0x1589C, symSize: 0x130 }
  - { offset: 0x7A871, size: 0x8, addend: 0x0, symName: _fluid_settings_getnum_default, symObjAddr: 0x20C8, symBinAddr: 0x159CC, symSize: 0x118 }
  - { offset: 0x7A99E, size: 0x8, addend: 0x0, symName: _fluid_settings_setint, symObjAddr: 0x21E0, symBinAddr: 0x15AE4, symSize: 0x188 }
  - { offset: 0x7AB18, size: 0x8, addend: 0x0, symName: _fluid_settings_getint, symObjAddr: 0x2368, symBinAddr: 0x15C6C, symSize: 0x11C }
  - { offset: 0x7AC45, size: 0x8, addend: 0x0, symName: _fluid_settings_getint_range, symObjAddr: 0x2484, symBinAddr: 0x15D88, symSize: 0x134 }
  - { offset: 0x7AD82, size: 0x8, addend: 0x0, symName: _fluid_settings_getint_default, symObjAddr: 0x25B8, symBinAddr: 0x15EBC, symSize: 0x11C }
  - { offset: 0x7AEAF, size: 0x8, addend: 0x0, symName: _fluid_settings_foreach_option, symObjAddr: 0x26D4, symBinAddr: 0x15FD8, symSize: 0x188 }
  - { offset: 0x7B05B, size: 0x8, addend: 0x0, symName: _fluid_settings_option_count, symObjAddr: 0x285C, symBinAddr: 0x16160, symSize: 0x114 }
  - { offset: 0x7B177, size: 0x8, addend: 0x0, symName: _fluid_settings_option_concat, symObjAddr: 0x2970, symBinAddr: 0x16274, symSize: 0x21C }
  - { offset: 0x7B394, size: 0x8, addend: 0x0, symName: _fluid_settings_foreach, symObjAddr: 0x2B8C, symBinAddr: 0x16490, symSize: 0x158 }
  - { offset: 0x7B539, size: 0x8, addend: 0x0, symName: _fluid_settings_foreach_iter, symObjAddr: 0x2CE4, symBinAddr: 0x165E8, symSize: 0xC8 }
  - { offset: 0x7B670, size: 0x8, addend: 0x0, symName: _fluid_settings_split_csv, symObjAddr: 0x2DAC, symBinAddr: 0x166B0, symSize: 0xD8 }
  - { offset: 0x7B82C, size: 0x8, addend: 0x0, symName: _fluid_set_log_function, symObjAddr: 0x0, symBinAddr: 0x1699C, symSize: 0x34 }
  - { offset: 0x7B847, size: 0x8, addend: 0x0, symName: _fluid_curtime, symObjAddr: 0x230, symBinAddr: 0x16BCC, symSize: 0x50 }
  - { offset: 0x7B868, size: 0x8, addend: 0x0, symName: _fluid_curtime.initial_time, symObjAddr: 0x66F8, symBinAddr: 0x6C540, symSize: 0x0 }
  - { offset: 0x7B89C, size: 0x8, addend: 0x0, symName: _fluid_file_open, symObjAddr: 0x7B0, symBinAddr: 0x170E0, symSize: 0x94 }
  - { offset: 0x7B8C4, size: 0x8, addend: 0x0, symName: _fluid_file_open.ErrExist, symObjAddr: 0xDA7, symBinAddr: 0x59C53, symSize: 0x0 }
  - { offset: 0x7B8DB, size: 0x8, addend: 0x0, symName: _fluid_file_open.ErrRegular, symObjAddr: 0xDBC, symBinAddr: 0x59C68, symSize: 0x0 }
  - { offset: 0x7B8F2, size: 0x8, addend: 0x0, symName: _fluid_file_open.ErrNull, symObjAddr: 0xDE6, symBinAddr: 0x59C92, symSize: 0x0 }
  - { offset: 0x7B9CE, size: 0x8, addend: 0x0, symName: _fluid_log_function, symObjAddr: 0xC38, symBinAddr: 0x6C4A0, symSize: 0x0 }
  - { offset: 0x7BA1D, size: 0x8, addend: 0x0, symName: _fluid_log_user_data, symObjAddr: 0x66D0, symBinAddr: 0x6C518, symSize: 0x0 }
  - { offset: 0x7BA3E, size: 0x8, addend: 0x0, symName: _fluid_libname, symObjAddr: 0xD9C, symBinAddr: 0x59C48, symSize: 0x0 }
  - { offset: 0x7BA5A, size: 0x8, addend: 0x0, symName: _fluid_shell_parse_argv_internal, symObjAddr: 0x910, symBinAddr: 0x17240, symSize: 0x2E8 }
  - { offset: 0x7BFD7, size: 0x8, addend: 0x0, symName: _fluid_set_log_function, symObjAddr: 0x0, symBinAddr: 0x1699C, symSize: 0x34 }
  - { offset: 0x7C029, size: 0x8, addend: 0x0, symName: _fluid_default_log_function, symObjAddr: 0x34, symBinAddr: 0x169D0, symSize: 0x68 }
  - { offset: 0x7C0C0, size: 0x8, addend: 0x0, symName: _fluid_log, symObjAddr: 0x9C, symBinAddr: 0x16A38, symSize: 0xA8 }
  - { offset: 0x7C15B, size: 0x8, addend: 0x0, symName: _fluid_alloc, symObjAddr: 0x144, symBinAddr: 0x16AE0, symSize: 0x4 }
  - { offset: 0x7C17F, size: 0x8, addend: 0x0, symName: _fluid_alloc, symObjAddr: 0x144, symBinAddr: 0x16AE0, symSize: 0x4 }
  - { offset: 0x7C1A3, size: 0x8, addend: 0x0, symName: _fluid_fopen, symObjAddr: 0x148, symBinAddr: 0x16AE4, symSize: 0x4 }
  - { offset: 0x7C1C8, size: 0x8, addend: 0x0, symName: _fluid_fopen, symObjAddr: 0x148, symBinAddr: 0x16AE4, symSize: 0x4 }
  - { offset: 0x7C1FD, size: 0x8, addend: 0x0, symName: _fluid_free, symObjAddr: 0x14C, symBinAddr: 0x16AE8, symSize: 0x4 }
  - { offset: 0x7C21B, size: 0x8, addend: 0x0, symName: _fluid_free, symObjAddr: 0x14C, symBinAddr: 0x16AE8, symSize: 0x4 }
  - { offset: 0x7C23A, size: 0x8, addend: 0x0, symName: _fluid_strtok, symObjAddr: 0x150, symBinAddr: 0x16AEC, symSize: 0xE0 }
  - { offset: 0x7C3FB, size: 0x8, addend: 0x0, symName: _fluid_thread_high_prio, symObjAddr: 0x2CC, symBinAddr: 0x16C1C, symSize: 0x70 }
  - { offset: 0x7C4F6, size: 0x8, addend: 0x0, symName: _new_fluid_timer, symObjAddr: 0x33C, symBinAddr: 0x16C8C, symSize: 0xD4 }
  - { offset: 0x7C670, size: 0x8, addend: 0x0, symName: _fluid_timer_run, symObjAddr: 0x410, symBinAddr: 0x16D60, symSize: 0x138 }
  - { offset: 0x7C830, size: 0x8, addend: 0x0, symName: _delete_fluid_timer, symObjAddr: 0x548, symBinAddr: 0x16E98, symSize: 0x4C }
  - { offset: 0x7C8D8, size: 0x8, addend: 0x0, symName: _fluid_timer_join, symObjAddr: 0x594, symBinAddr: 0x16EE4, symSize: 0x48 }
  - { offset: 0x7C90C, size: 0x8, addend: 0x0, symName: _fluid_get_stdin, symObjAddr: 0x5FC, symBinAddr: 0x16F2C, symSize: 0x8 }
  - { offset: 0x7C927, size: 0x8, addend: 0x0, symName: _fluid_get_stdout, symObjAddr: 0x604, symBinAddr: 0x16F34, symSize: 0x8 }
  - { offset: 0x7C996, size: 0x8, addend: 0x0, symName: _fluid_istream_readline, symObjAddr: 0x60C, symBinAddr: 0x16F3C, symSize: 0xE4 }
  - { offset: 0x7CA67, size: 0x8, addend: 0x0, symName: _fluid_ostream_printf, symObjAddr: 0x6F0, symBinAddr: 0x17020, symSize: 0xC0 }
  - { offset: 0x7CBD3, size: 0x8, addend: 0x0, symName: _fluid_file_tell, symObjAddr: 0x844, symBinAddr: 0x17174, symSize: 0x4 }
  - { offset: 0x7CC00, size: 0x8, addend: 0x0, symName: _fluid_file_tell, symObjAddr: 0x844, symBinAddr: 0x17174, symSize: 0x4 }
  - { offset: 0x7CC23, size: 0x8, addend: 0x0, symName: _fluid_file_read, symObjAddr: 0x848, symBinAddr: 0x17178, symSize: 0x80 }
  - { offset: 0x7CCED, size: 0x8, addend: 0x0, symName: _fluid_file_seek, symObjAddr: 0x8C8, symBinAddr: 0x171F8, symSize: 0x48 }
  - { offset: 0x7CE1A, size: 0x8, addend: 0x0, symName: _fluid_strfreev_internal, symObjAddr: 0xBF8, symBinAddr: 0x17528, symSize: 0x40 }
  - { offset: 0x7CF4F, size: 0x8, addend: 0x0, symName: _new_fluid_defsfloader, symObjAddr: 0x0, symBinAddr: 0x17568, symSize: 0x60 }
  - { offset: 0x7EAE3, size: 0x8, addend: 0x0, symName: _new_fluid_defsfloader, symObjAddr: 0x0, symBinAddr: 0x17568, symSize: 0x60 }
  - { offset: 0x7EC4F, size: 0x8, addend: 0x0, symName: _fluid_defsfloader_load, symObjAddr: 0x60, symBinAddr: 0x175C8, symSize: 0x154 }
  - { offset: 0x7EE5A, size: 0x8, addend: 0x0, symName: _fluid_defsfont_load, symObjAddr: 0x53C, symBinAddr: 0x17A14, symSize: 0x278 }
  - { offset: 0x7F138, size: 0x8, addend: 0x0, symName: _delete_fluid_defsfont, symObjAddr: 0x374, symBinAddr: 0x1784C, symSize: 0x1C8 }
  - { offset: 0x7F362, size: 0x8, addend: 0x0, symName: _fluid_defsfont_sfont_get_name, symObjAddr: 0x244, symBinAddr: 0x1771C, symSize: 0x18 }
  - { offset: 0x7F408, size: 0x8, addend: 0x0, symName: _fluid_defsfont_sfont_get_preset, symObjAddr: 0x25C, symBinAddr: 0x17734, symSize: 0x7C }
  - { offset: 0x7F4EE, size: 0x8, addend: 0x0, symName: _fluid_defsfont_sfont_iteration_start, symObjAddr: 0x2D8, symBinAddr: 0x177B0, symSize: 0x1C }
  - { offset: 0x7F56C, size: 0x8, addend: 0x0, symName: _fluid_defsfont_sfont_iteration_next, symObjAddr: 0x2F4, symBinAddr: 0x177CC, symSize: 0x3C }
  - { offset: 0x7F5C9, size: 0x8, addend: 0x0, symName: _fluid_defsfont_sfont_delete, symObjAddr: 0x330, symBinAddr: 0x17808, symSize: 0x44 }
  - { offset: 0x7F69D, size: 0x8, addend: 0x0, symName: _unload_preset_samples, symObjAddr: 0x28BC, symBinAddr: 0x19980, symSize: 0xD8 }
  - { offset: 0x7F80D, size: 0x8, addend: 0x0, symName: _delete_fluid_defpreset, symObjAddr: 0x8C8, symBinAddr: 0x17CE8, symSize: 0xD0 }
  - { offset: 0x7F941, size: 0x8, addend: 0x0, symName: _delete_fluid_inst, symObjAddr: 0xF40, symBinAddr: 0x18348, symSize: 0x7C }
  - { offset: 0x7FDB0, size: 0x8, addend: 0x0, symName: _fluid_mod_import_sfont, symObjAddr: 0x1204, symBinAddr: 0x18578, symSize: 0x1F0 }
  - { offset: 0x7FEF5, size: 0x8, addend: 0x0, symName: _fluid_sample_import_sfont, symObjAddr: 0x13F4, symBinAddr: 0x18768, symSize: 0xC4 }
  - { offset: 0x7FF88, size: 0x8, addend: 0x0, symName: _fluid_defsfont_load_all_sampledata, symObjAddr: 0x1050, symBinAddr: 0x183C4, symSize: 0x1B4 }
  - { offset: 0x801B5, size: 0x8, addend: 0x0, symName: _fluid_defpreset_import_sfont, symObjAddr: 0x1540, symBinAddr: 0x1882C, symSize: 0x218 }
  - { offset: 0x803BA, size: 0x8, addend: 0x0, symName: _fluid_defpreset_preset_delete, symObjAddr: 0x86C, symBinAddr: 0x17C8C, symSize: 0x5C }
  - { offset: 0x80489, size: 0x8, addend: 0x0, symName: _fluid_defpreset_preset_get_name, symObjAddr: 0x998, symBinAddr: 0x17DB8, symSize: 0x18 }
  - { offset: 0x804FF, size: 0x8, addend: 0x0, symName: _fluid_defpreset_preset_get_banknum, symObjAddr: 0x9B8, symBinAddr: 0x17DD0, symSize: 0x18 }
  - { offset: 0x80575, size: 0x8, addend: 0x0, symName: _fluid_defpreset_preset_get_num, symObjAddr: 0x9D8, symBinAddr: 0x17DE8, symSize: 0x18 }
  - { offset: 0x805D0, size: 0x8, addend: 0x0, symName: _fluid_defpreset_preset_noteon, symObjAddr: 0x9F8, symBinAddr: 0x17E00, symSize: 0x44 }
  - { offset: 0x80657, size: 0x8, addend: 0x0, symName: _fluid_defpreset_noteon, symObjAddr: 0xA3C, symBinAddr: 0x17E44, symSize: 0x504 }
  - { offset: 0x80D54, size: 0x8, addend: 0x0, symName: _new_fluid_preset_zone, symObjAddr: 0x1AA8, symBinAddr: 0x18C50, symSize: 0xC8 }
  - { offset: 0x80E18, size: 0x8, addend: 0x0, symName: _fluid_preset_zone_import_sfont, symObjAddr: 0x1B70, symBinAddr: 0x18D18, symSize: 0x23C }
  - { offset: 0x80FEB, size: 0x8, addend: 0x0, symName: _dynamic_samples_preset_notify, symObjAddr: 0x1800, symBinAddr: 0x18A44, symSize: 0x1AC }
  - { offset: 0x811DD, size: 0x8, addend: 0x0, symName: _load_preset_samples, symObjAddr: 0x2754, symBinAddr: 0x19818, symSize: 0x168 }
  - { offset: 0x81399, size: 0x8, addend: 0x0, symName: _fluid_zone_inside_range, symObjAddr: 0x1A24, symBinAddr: 0x18BF0, symSize: 0x60 }
  - { offset: 0x814E6, size: 0x8, addend: 0x0, symName: _fluid_inst_import_sfont, symObjAddr: 0x1DC0, symBinAddr: 0x18F54, symSize: 0x254 }
  - { offset: 0x8176F, size: 0x8, addend: 0x0, symName: _fluid_zone_mod_import_sfont, symObjAddr: 0x2014, symBinAddr: 0x191A8, symSize: 0x36C }
  - { offset: 0x8193C, size: 0x8, addend: 0x0, symName: _new_fluid_inst_zone, symObjAddr: 0x2418, symBinAddr: 0x19514, symSize: 0xC4 }
  - { offset: 0x81A00, size: 0x8, addend: 0x0, symName: _fluid_inst_zone_import_sfont, symObjAddr: 0x24DC, symBinAddr: 0x195D8, symSize: 0x174 }
  - { offset: 0x81C1F, size: 0x8, addend: 0x0, symName: _dynamic_samples_sample_notify, symObjAddr: 0x2688, symBinAddr: 0x1974C, symSize: 0xCC }
  - { offset: 0x81D07, size: 0x8, addend: 0x0, symName: _default_fopen, symObjAddr: 0x0, symBinAddr: 0x19A58, symSize: 0x60 }
  - { offset: 0x81D22, size: 0x8, addend: 0x0, symName: _fluid_sample_validate, symObjAddr: 0x838, symBinAddr: 0x1A204, symSize: 0x158 }
  - { offset: 0x8258E, size: 0x8, addend: 0x0, symName: _default_fopen, symObjAddr: 0x0, symBinAddr: 0x19A58, symSize: 0x60 }
  - { offset: 0x82636, size: 0x8, addend: 0x0, symName: _default_fclose, symObjAddr: 0x60, symBinAddr: 0x19AB8, symSize: 0x1C }
  - { offset: 0x82685, size: 0x8, addend: 0x0, symName: _default_ftell, symObjAddr: 0x7C, symBinAddr: 0x19AD4, symSize: 0x4 }
  - { offset: 0x826AF, size: 0x8, addend: 0x0, symName: _default_ftell, symObjAddr: 0x7C, symBinAddr: 0x19AD4, symSize: 0x4 }
  - { offset: 0x826D3, size: 0x8, addend: 0x0, symName: _safe_fread, symObjAddr: 0x80, symBinAddr: 0x19AD8, symSize: 0x4 }
  - { offset: 0x82717, size: 0x8, addend: 0x0, symName: _safe_fread, symObjAddr: 0x80, symBinAddr: 0x19AD8, symSize: 0x4 }
  - { offset: 0x82753, size: 0x8, addend: 0x0, symName: _safe_fseek, symObjAddr: 0x84, symBinAddr: 0x19ADC, symSize: 0x4 }
  - { offset: 0x82797, size: 0x8, addend: 0x0, symName: _safe_fseek, symObjAddr: 0x84, symBinAddr: 0x19ADC, symSize: 0x4 }
  - { offset: 0x82833, size: 0x8, addend: 0x0, symName: _new_fluid_sfloader, symObjAddr: 0x88, symBinAddr: 0x19AE0, symSize: 0x9C }
  - { offset: 0x82923, size: 0x8, addend: 0x0, symName: _fluid_sfloader_set_callbacks, symObjAddr: 0x124, symBinAddr: 0x19B7C, symSize: 0x34 }
  - { offset: 0x8296C, size: 0x8, addend: 0x0, symName: _delete_fluid_sfloader, symObjAddr: 0x158, symBinAddr: 0x19BB0, symSize: 0xC }
  - { offset: 0x829A9, size: 0x8, addend: 0x0, symName: _fluid_sfloader_set_data, symObjAddr: 0x164, symBinAddr: 0x19BBC, symSize: 0x1C }
  - { offset: 0x829DF, size: 0x8, addend: 0x0, symName: _fluid_sfloader_get_data, symObjAddr: 0x180, symBinAddr: 0x19BD8, symSize: 0xC }
  - { offset: 0x82A58, size: 0x8, addend: 0x0, symName: _new_fluid_sfont, symObjAddr: 0x18C, symBinAddr: 0x19BE4, symSize: 0x98 }
  - { offset: 0x82B27, size: 0x8, addend: 0x0, symName: _fluid_sfont_set_data, symObjAddr: 0x2B0, symBinAddr: 0x19C7C, symSize: 0x1C }
  - { offset: 0x82B5D, size: 0x8, addend: 0x0, symName: _fluid_sfont_get_data, symObjAddr: 0x2CC, symBinAddr: 0x19C98, symSize: 0xC }
  - { offset: 0x82B87, size: 0x8, addend: 0x0, symName: _fluid_sfont_get_id, symObjAddr: 0x2D8, symBinAddr: 0x19CA4, symSize: 0x8 }
  - { offset: 0x82BB3, size: 0x8, addend: 0x0, symName: _fluid_sfont_get_name, symObjAddr: 0x2E0, symBinAddr: 0x19CAC, symSize: 0x8 }
  - { offset: 0x82BF2, size: 0x8, addend: 0x0, symName: _fluid_sfont_get_preset, symObjAddr: 0x2E8, symBinAddr: 0x19CB4, symSize: 0x8 }
  - { offset: 0x82C5C, size: 0x8, addend: 0x0, symName: _fluid_sfont_get_default_mod, symObjAddr: 0x2F0, symBinAddr: 0x19CBC, symSize: 0xD8 }
  - { offset: 0x82D20, size: 0x8, addend: 0x0, symName: _fluid_sfont_set_default_mod, symObjAddr: 0x3C8, symBinAddr: 0x19D94, symSize: 0x9C }
  - { offset: 0x82DF1, size: 0x8, addend: 0x0, symName: _fluid_sfont_iteration_start, symObjAddr: 0x464, symBinAddr: 0x19E30, symSize: 0x14 }
  - { offset: 0x82E24, size: 0x8, addend: 0x0, symName: _fluid_sfont_iteration_next, symObjAddr: 0x478, symBinAddr: 0x19E44, symSize: 0x18 }
  - { offset: 0x82E5B, size: 0x8, addend: 0x0, symName: _delete_fluid_sfont, symObjAddr: 0x490, symBinAddr: 0x19E5C, symSize: 0x38 }
  - { offset: 0x82EA7, size: 0x8, addend: 0x0, symName: _new_fluid_preset, symObjAddr: 0x4C8, symBinAddr: 0x19E94, symSize: 0xA8 }
  - { offset: 0x82F5A, size: 0x8, addend: 0x0, symName: _fluid_preset_set_data, symObjAddr: 0x570, symBinAddr: 0x19F3C, symSize: 0x1C }
  - { offset: 0x82F95, size: 0x8, addend: 0x0, symName: _fluid_preset_get_data, symObjAddr: 0x58C, symBinAddr: 0x19F58, symSize: 0xC }
  - { offset: 0x82FC1, size: 0x8, addend: 0x0, symName: _fluid_preset_get_name, symObjAddr: 0x598, symBinAddr: 0x19F64, symSize: 0x8 }
  - { offset: 0x83000, size: 0x8, addend: 0x0, symName: _fluid_preset_get_banknum, symObjAddr: 0x5A0, symBinAddr: 0x19F6C, symSize: 0x8 }
  - { offset: 0x8303F, size: 0x8, addend: 0x0, symName: _fluid_preset_get_num, symObjAddr: 0x5A8, symBinAddr: 0x19F74, symSize: 0x8 }
  - { offset: 0x8307E, size: 0x8, addend: 0x0, symName: _fluid_preset_get_sfont, symObjAddr: 0x5B0, symBinAddr: 0x19F7C, symSize: 0x8 }
  - { offset: 0x830AA, size: 0x8, addend: 0x0, symName: _delete_fluid_preset, symObjAddr: 0x5B8, symBinAddr: 0x19F84, symSize: 0xC }
  - { offset: 0x830DD, size: 0x8, addend: 0x0, symName: _new_fluid_sample, symObjAddr: 0x5C4, symBinAddr: 0x19F90, symSize: 0x5C }
  - { offset: 0x83130, size: 0x8, addend: 0x0, symName: _delete_fluid_sample, symObjAddr: 0x620, symBinAddr: 0x19FEC, symSize: 0x44 }
  - { offset: 0x8317F, size: 0x8, addend: 0x0, symName: _fluid_sample_sizeof, symObjAddr: 0x664, symBinAddr: 0x1A030, symSize: 0x8 }
  - { offset: 0x83199, size: 0x8, addend: 0x0, symName: _fluid_sample_set_name, symObjAddr: 0x66C, symBinAddr: 0x1A038, symSize: 0x30 }
  - { offset: 0x831D4, size: 0x8, addend: 0x0, symName: _fluid_sample_set_sound_data, symObjAddr: 0x69C, symBinAddr: 0x1A068, symSize: 0x160 }
  - { offset: 0x832EE, size: 0x8, addend: 0x0, symName: _fluid_sample_set_loop, symObjAddr: 0x7FC, symBinAddr: 0x1A1C8, symSize: 0x1C }
  - { offset: 0x83338, size: 0x8, addend: 0x0, symName: _fluid_sample_set_pitch, symObjAddr: 0x818, symBinAddr: 0x1A1E4, symSize: 0x20 }
  - { offset: 0x83381, size: 0x8, addend: 0x0, symName: _fluid_sample_sanitize_loop, symObjAddr: 0x990, symBinAddr: 0x1A35C, symSize: 0x180 }
  - { offset: 0x83495, size: 0x8, addend: 0x0, symName: _fluid_is_soundfont, symObjAddr: 0x0, symBinAddr: 0x1A4DC, symSize: 0x12C }
  - { offset: 0x83D5D, size: 0x8, addend: 0x0, symName: _fluid_is_soundfont, symObjAddr: 0x0, symBinAddr: 0x1A4DC, symSize: 0x12C }
  - { offset: 0x83FAC, size: 0x8, addend: 0x0, symName: _fluid_sffile_open, symObjAddr: 0x12C, symBinAddr: 0x1A608, symSize: 0x374 }
  - { offset: 0x8424D, size: 0x8, addend: 0x0, symName: _process_info, symObjAddr: 0x1FCC, symBinAddr: 0x1C344, symSize: 0x88C }
  - { offset: 0x8463D, size: 0x8, addend: 0x0, symName: _read_listchunk, symObjAddr: 0x1EE8, symBinAddr: 0x1C260, symSize: 0xE4 }
  - { offset: 0x846D3, size: 0x8, addend: 0x0, symName: _process_sdta, symObjAddr: 0x2858, symBinAddr: 0x1CBD0, symSize: 0x210 }
  - { offset: 0x84826, size: 0x8, addend: 0x0, symName: _fluid_sffile_close, symObjAddr: 0x4A0, symBinAddr: 0x1A97C, symSize: 0x14C }
  - { offset: 0x849C4, size: 0x8, addend: 0x0, symName: _delete_preset, symObjAddr: 0x1240, symBinAddr: 0x1B71C, symSize: 0xD0 }
  - { offset: 0x84E56, size: 0x8, addend: 0x0, symName: _fluid_sffile_parse_presets, symObjAddr: 0x5EC, symBinAddr: 0x1AAC8, symSize: 0xA1C }
  - { offset: 0x85793, size: 0x8, addend: 0x0, symName: _load_pgen, symObjAddr: 0x13E0, symBinAddr: 0x1B7EC, symSize: 0x510 }
  - { offset: 0x85C02, size: 0x8, addend: 0x0, symName: _load_ihdr, symObjAddr: 0x2B8C, symBinAddr: 0x1CF04, symSize: 0x234 }
  - { offset: 0x85DD3, size: 0x8, addend: 0x0, symName: _pdtahelper, symObjAddr: 0x2A78, symBinAddr: 0x1CDF0, symSize: 0x114 }
  - { offset: 0x85E57, size: 0x8, addend: 0x0, symName: _load_ibag, symObjAddr: 0x2DC0, symBinAddr: 0x1D138, symSize: 0x2CC }
  - { offset: 0x8608D, size: 0x8, addend: 0x0, symName: _load_imod, symObjAddr: 0x308C, symBinAddr: 0x1D404, symSize: 0x1C0 }
  - { offset: 0x8624C, size: 0x8, addend: 0x0, symName: _load_igen, symObjAddr: 0x1984, symBinAddr: 0x1BCFC, symSize: 0x564 }
  - { offset: 0x866D8, size: 0x8, addend: 0x0, symName: _load_shdr, symObjAddr: 0x324C, symBinAddr: 0x1D5C4, symSize: 0x238 }
  - { offset: 0x86A09, size: 0x8, addend: 0x0, symName: _fluid_sffile_read_sample_data, symObjAddr: 0x1008, symBinAddr: 0x1B4E4, symSize: 0x238 }
  - { offset: 0x86DA3, size: 0x8, addend: 0x0, symName: _preset_compare_func, symObjAddr: 0x2A68, symBinAddr: 0x1CDE0, symSize: 0x10 }
  - { offset: 0x86E28, size: 0x8, addend: 0x0, symName: _fluid_samplecache_load, symObjAddr: 0x0, symBinAddr: 0x1D7FC, symSize: 0x2C0 }
  - { offset: 0x86E4F, size: 0x8, addend: 0x0, symName: __MergedGlobals, symObjAddr: 0x3018, symBinAddr: 0x6C548, symSize: 0x0 }
  - { offset: 0x86E70, size: 0x8, addend: 0x0, symName: __MergedGlobals, symObjAddr: 0x3018, symBinAddr: 0x6C548, symSize: 0x0 }
  - { offset: 0x874CB, size: 0x8, addend: 0x0, symName: _fluid_samplecache_load, symObjAddr: 0x0, symBinAddr: 0x1D7FC, symSize: 0x2C0 }
  - { offset: 0x8790B, size: 0x8, addend: 0x0, symName: _fluid_samplecache_unload, symObjAddr: 0x2C0, symBinAddr: 0x1DABC, symSize: 0xE0 }
  - { offset: 0x87A70, size: 0x8, addend: 0x0, symName: _fluid_adsr_env_set_data, symObjAddr: 0x0, symBinAddr: 0x1DB9C, symSize: 0x24 }
  - { offset: 0x87AC2, size: 0x8, addend: 0x0, symName: _fluid_adsr_env_set_data, symObjAddr: 0x0, symBinAddr: 0x1DB9C, symSize: 0x24 }
  - { offset: 0x87C87, size: 0x8, addend: 0x0, symName: _new_fluid_chorus, symObjAddr: 0x0, symBinAddr: 0x1DBC0, symSize: 0x2A0 }
  - { offset: 0x87F1E, size: 0x8, addend: 0x0, symName: _new_fluid_chorus, symObjAddr: 0x0, symBinAddr: 0x1DBC0, symSize: 0x2A0 }
  - { offset: 0x880BE, size: 0x8, addend: 0x0, symName: _delete_fluid_chorus, symObjAddr: 0x2A0, symBinAddr: 0x1DE60, symSize: 0x34 }
  - { offset: 0x880F5, size: 0x8, addend: 0x0, symName: _fluid_chorus_reset, symObjAddr: 0x2D4, symBinAddr: 0x1DE94, symSize: 0x1C4 }
  - { offset: 0x88124, size: 0x8, addend: 0x0, symName: _fluid_chorus_set, symObjAddr: 0x498, symBinAddr: 0x1E058, symSize: 0x240 }
  - { offset: 0x8826F, size: 0x8, addend: 0x0, symName: _update_parameters_from_sample_rate, symObjAddr: 0x6D8, symBinAddr: 0x1E298, symSize: 0x29C }
  - { offset: 0x88467, size: 0x8, addend: 0x0, symName: _fluid_chorus_processmix, symObjAddr: 0x97C, symBinAddr: 0x1E534, symSize: 0x2BC }
  - { offset: 0x88586, size: 0x8, addend: 0x0, symName: _fluid_chorus_processreplace, symObjAddr: 0xC38, symBinAddr: 0x1E7F0, symSize: 0x328 }
  - { offset: 0x886E1, size: 0x8, addend: 0x0, symName: _fluid_iir_filter_init_table, symObjAddr: 0x0, symBinAddr: 0x1EB18, symSize: 0x84 }
  - { offset: 0x8929F, size: 0x8, addend: 0x0, symName: _fluid_iir_filter_init_table, symObjAddr: 0x0, symBinAddr: 0x1EB18, symSize: 0x84 }
  - { offset: 0x89D69, size: 0x8, addend: 0x0, symName: _fluid_iir_filter_apply, symObjAddr: 0x84, symBinAddr: 0x1EB9C, symSize: 0x87C }
  - { offset: 0x8A536, size: 0x8, addend: 0x0, symName: _fluid_iir_filter_calc, symObjAddr: 0x900, symBinAddr: 0x1F418, symSize: 0x228 }
  - { offset: 0x8C30C, size: 0x8, addend: 0x0, symName: _fluid_iir_filter_init, symObjAddr: 0x0, symBinAddr: 0x1F640, symSize: 0x30 }
  - { offset: 0x8C319, size: 0x8, addend: 0x0, symName: _fluid_iir_filter_set_q, symObjAddr: 0x5C, symBinAddr: 0x1F69C, symSize: 0x108 }
  - { offset: 0x8C56A, size: 0x8, addend: 0x0, symName: _fluid_iir_filter_init, symObjAddr: 0x0, symBinAddr: 0x1F640, symSize: 0x30 }
  - { offset: 0x8C5E3, size: 0x8, addend: 0x0, symName: _fluid_iir_filter_reset, symObjAddr: 0x30, symBinAddr: 0x1F670, symSize: 0x20 }
  - { offset: 0x8C5FE, size: 0x8, addend: 0x0, symName: _fluid_iir_filter_set_fres, symObjAddr: 0x50, symBinAddr: 0x1F690, symSize: 0xC }
  - { offset: 0x8C6CD, size: 0x8, addend: 0x0, symName: _fluid_lfo_set_incr, symObjAddr: 0x0, symBinAddr: 0x1F7A4, symSize: 0xC }
  - { offset: 0x8C6DA, size: 0x8, addend: 0x0, symName: _fluid_lfo_set_incr, symObjAddr: 0x0, symBinAddr: 0x1F7A4, symSize: 0xC }
  - { offset: 0x8C726, size: 0x8, addend: 0x0, symName: _fluid_lfo_set_delay, symObjAddr: 0xC, symBinAddr: 0x1F7B0, symSize: 0xC }
  - { offset: 0x8C839, size: 0x8, addend: 0x0, symName: _fluid_rvoice_write, symObjAddr: 0x0, symBinAddr: 0x1F7BC, symSize: 0x840 }
  - { offset: 0x8D1A3, size: 0x8, addend: 0x0, symName: _fluid_rvoice_write, symObjAddr: 0x0, symBinAddr: 0x1F7BC, symSize: 0x840 }
  - { offset: 0x8D6C7, size: 0x8, addend: 0x0, symName: _fluid_rvoice_buffers_set_amp, symObjAddr: 0x840, symBinAddr: 0x1FFFC, symSize: 0x58 }
  - { offset: 0x8D74F, size: 0x8, addend: 0x0, symName: _fluid_rvoice_buffers_set_mapping, symObjAddr: 0x898, symBinAddr: 0x20054, symSize: 0x58 }
  - { offset: 0x8D800, size: 0x8, addend: 0x0, symName: _fluid_rvoice_reset, symObjAddr: 0x8F0, symBinAddr: 0x200AC, symSize: 0x5C }
  - { offset: 0x8D8F5, size: 0x8, addend: 0x0, symName: _fluid_rvoice_noteoff, symObjAddr: 0x94C, symBinAddr: 0x20108, symSize: 0x124 }
  - { offset: 0x8DAA2, size: 0x8, addend: 0x0, symName: _fluid_rvoice_multi_retrigger_attack, symObjAddr: 0xA70, symBinAddr: 0x2022C, symSize: 0x144 }
  - { offset: 0x8DC4E, size: 0x8, addend: 0x0, symName: _fluid_rvoice_set_portamento, symObjAddr: 0xBB4, symBinAddr: 0x20370, symSize: 0x2C }
  - { offset: 0x8DCB2, size: 0x8, addend: 0x0, symName: _fluid_rvoice_set_output_rate, symObjAddr: 0xBE0, symBinAddr: 0x2039C, symSize: 0xC }
  - { offset: 0x8DD06, size: 0x8, addend: 0x0, symName: _fluid_rvoice_set_interp_method, symObjAddr: 0xBEC, symBinAddr: 0x203A8, symSize: 0xC }
  - { offset: 0x8DD5A, size: 0x8, addend: 0x0, symName: _fluid_rvoice_set_root_pitch_hz, symObjAddr: 0xBF8, symBinAddr: 0x203B4, symSize: 0xC }
  - { offset: 0x8DDAE, size: 0x8, addend: 0x0, symName: _fluid_rvoice_set_pitch, symObjAddr: 0xC04, symBinAddr: 0x203C0, symSize: 0xC }
  - { offset: 0x8DE02, size: 0x8, addend: 0x0, symName: _fluid_rvoice_set_attenuation, symObjAddr: 0xC10, symBinAddr: 0x203CC, symSize: 0x14 }
  - { offset: 0x8DE56, size: 0x8, addend: 0x0, symName: _fluid_rvoice_set_min_attenuation_cB, symObjAddr: 0xC24, symBinAddr: 0x203E0, symSize: 0xC }
  - { offset: 0x8DEAA, size: 0x8, addend: 0x0, symName: _fluid_rvoice_set_viblfo_to_pitch, symObjAddr: 0xC30, symBinAddr: 0x203EC, symSize: 0xC }
  - { offset: 0x8DEFE, size: 0x8, addend: 0x0, symName: _fluid_rvoice_set_modlfo_to_pitch, symObjAddr: 0xC3C, symBinAddr: 0x203F8, symSize: 0xC }
  - { offset: 0x8DF52, size: 0x8, addend: 0x0, symName: _fluid_rvoice_set_modlfo_to_vol, symObjAddr: 0xC48, symBinAddr: 0x20404, symSize: 0xC }
  - { offset: 0x8DFA6, size: 0x8, addend: 0x0, symName: _fluid_rvoice_set_modlfo_to_fc, symObjAddr: 0xC54, symBinAddr: 0x20410, symSize: 0xC }
  - { offset: 0x8DFFA, size: 0x8, addend: 0x0, symName: _fluid_rvoice_set_modenv_to_fc, symObjAddr: 0xC60, symBinAddr: 0x2041C, symSize: 0xC }
  - { offset: 0x8E04E, size: 0x8, addend: 0x0, symName: _fluid_rvoice_set_modenv_to_pitch, symObjAddr: 0xC6C, symBinAddr: 0x20428, symSize: 0xC }
  - { offset: 0x8E0A2, size: 0x8, addend: 0x0, symName: _fluid_rvoice_set_synth_gain, symObjAddr: 0xC78, symBinAddr: 0x20434, symSize: 0x38 }
  - { offset: 0x8E0F6, size: 0x8, addend: 0x0, symName: _fluid_rvoice_set_start, symObjAddr: 0xCB0, symBinAddr: 0x2046C, symSize: 0x18 }
  - { offset: 0x8E14A, size: 0x8, addend: 0x0, symName: _fluid_rvoice_set_end, symObjAddr: 0xCC8, symBinAddr: 0x20484, symSize: 0x18 }
  - { offset: 0x8E19E, size: 0x8, addend: 0x0, symName: _fluid_rvoice_set_loopstart, symObjAddr: 0xCE0, symBinAddr: 0x2049C, symSize: 0x18 }
  - { offset: 0x8E1F2, size: 0x8, addend: 0x0, symName: _fluid_rvoice_set_loopend, symObjAddr: 0xCF8, symBinAddr: 0x204B4, symSize: 0x18 }
  - { offset: 0x8E246, size: 0x8, addend: 0x0, symName: _fluid_rvoice_set_samplemode, symObjAddr: 0xD10, symBinAddr: 0x204CC, symSize: 0x18 }
  - { offset: 0x8E29A, size: 0x8, addend: 0x0, symName: _fluid_rvoice_set_sample, symObjAddr: 0xD28, symBinAddr: 0x204E4, symSize: 0x1C }
  - { offset: 0x8E2EE, size: 0x8, addend: 0x0, symName: _fluid_rvoice_voiceoff, symObjAddr: 0xD44, symBinAddr: 0x20500, symSize: 0x14 }
  - { offset: 0x8E38A, size: 0x8, addend: 0x0, symName: _fluid_rvoice_dsp_silence, symObjAddr: 0x0, symBinAddr: 0x20514, symSize: 0x4 }
  - { offset: 0x8E3BB, size: 0x8, addend: 0x0, symName: _fluid_rvoice_dsp_silence, symObjAddr: 0x0, symBinAddr: 0x20514, symSize: 0x4 }
  - { offset: 0x8E406, size: 0x8, addend: 0x0, symName: _fluid_rvoice_dsp_silence, symObjAddr: 0x0, symBinAddr: 0x20514, symSize: 0x4 }
  - { offset: 0x8E427, size: 0x8, addend: 0x0, symName: __Z11dsp_invokerI14ProcessSilenceEiP15_fluid_rvoice_tPdi, symObjAddr: 0x4, symBinAddr: 0x20518, symSize: 0x238 }
  - { offset: 0x8EC76, size: 0x8, addend: 0x0, symName: _fluid_rvoice_dsp_interpolate, symObjAddr: 0x23C, symBinAddr: 0x20750, symSize: 0x184 }
  - { offset: 0x8EE10, size: 0x8, addend: 0x0, symName: __Z11dsp_invokerI15InterpolateNoneEiP15_fluid_rvoice_tPdi, symObjAddr: 0x3C0, symBinAddr: 0x208D4, symSize: 0x2F0 }
  - { offset: 0x8F25C, size: 0x8, addend: 0x0, symName: __ZNK17InterpolateLinearclILb1ELb1EEEiP15_fluid_rvoice_tPd, symObjAddr: 0x6B0, symBinAddr: 0x20BC4, symSize: 0x178 }
  - { offset: 0x8F490, size: 0x8, addend: 0x0, symName: __ZNK19Interpolate7thOrderclILb1ELb1EEEiP15_fluid_rvoice_tPd, symObjAddr: 0x19C4, symBinAddr: 0x21ED8, symSize: 0x7F0 }
  - { offset: 0x905A6, size: 0x8, addend: 0x0, symName: __ZNK19Interpolate4thOrderclILb1ELb1EEEiP15_fluid_rvoice_tPd, symObjAddr: 0xC6C, symBinAddr: 0x21180, symSize: 0x380 }
  - { offset: 0x90DE9, size: 0x8, addend: 0x0, symName: __ZNK17InterpolateLinearclILb0ELb1EEEiP15_fluid_rvoice_tPd, symObjAddr: 0x9A4, symBinAddr: 0x20EB8, symSize: 0x168 }
  - { offset: 0x91008, size: 0x8, addend: 0x0, symName: __ZNK19Interpolate7thOrderclILb0ELb1EEEiP15_fluid_rvoice_tPd, symObjAddr: 0x29B0, symBinAddr: 0x22EC4, symSize: 0x728 }
  - { offset: 0x91F27, size: 0x8, addend: 0x0, symName: __ZNK19Interpolate4thOrderclILb0ELb1EEEiP15_fluid_rvoice_tPd, symObjAddr: 0x1354, symBinAddr: 0x21868, symSize: 0x338 }
  - { offset: 0x91F6F, size: 0x8, addend: 0x0, symName: __ZNK19Interpolate4thOrderclILb0ELb1EEEiP15_fluid_rvoice_tPd, symObjAddr: 0x1354, symBinAddr: 0x21868, symSize: 0x338 }
  - { offset: 0x925D2, size: 0x8, addend: 0x0, symName: __ZNK17InterpolateLinearclILb1ELb0EEEiP15_fluid_rvoice_tPd, symObjAddr: 0x828, symBinAddr: 0x20D3C, symSize: 0x17C }
  - { offset: 0x92809, size: 0x8, addend: 0x0, symName: __ZNK19Interpolate7thOrderclILb1ELb0EEEiP15_fluid_rvoice_tPd, symObjAddr: 0x21B4, symBinAddr: 0x226C8, symSize: 0x7FC }
  - { offset: 0x936B6, size: 0x8, addend: 0x0, symName: __ZNK19Interpolate4thOrderclILb1ELb0EEEiP15_fluid_rvoice_tPd, symObjAddr: 0xFEC, symBinAddr: 0x21500, symSize: 0x368 }
  - { offset: 0x93CD2, size: 0x8, addend: 0x0, symName: __ZNK17InterpolateLinearclILb0ELb0EEEiP15_fluid_rvoice_tPd, symObjAddr: 0xB0C, symBinAddr: 0x21020, symSize: 0x160 }
  - { offset: 0x93EE5, size: 0x8, addend: 0x0, symName: __ZNK19Interpolate7thOrderclILb0ELb0EEEiP15_fluid_rvoice_tPd, symObjAddr: 0x30D8, symBinAddr: 0x235EC, symSize: 0x75C }
  - { offset: 0x94BE8, size: 0x8, addend: 0x0, symName: __ZNK19Interpolate4thOrderclILb0ELb0EEEiP15_fluid_rvoice_tPd, symObjAddr: 0x168C, symBinAddr: 0x21BA0, symSize: 0x338 }
  - { offset: 0x966B2, size: 0x8, addend: 0x0, symName: _fluid_rvoice_eventhandler_push_int_real, symObjAddr: 0x0, symBinAddr: 0x23D48, symSize: 0x2C }
  - { offset: 0x9687D, size: 0x8, addend: 0x0, symName: _fluid_rvoice_eventhandler_push_int_real, symObjAddr: 0x0, symBinAddr: 0x23D48, symSize: 0x2C }
  - { offset: 0x9690C, size: 0x8, addend: 0x0, symName: _fluid_rvoice_eventhandler_push_LOCAL, symObjAddr: 0x2C, symBinAddr: 0x23D74, symSize: 0x108 }
  - { offset: 0x96B1E, size: 0x8, addend: 0x0, symName: _fluid_rvoice_eventhandler_push, symObjAddr: 0x134, symBinAddr: 0x23E7C, symSize: 0x40 }
  - { offset: 0x96B9D, size: 0x8, addend: 0x0, symName: _fluid_rvoice_eventhandler_push_ptr, symObjAddr: 0x174, symBinAddr: 0x23EBC, symSize: 0x28 }
  - { offset: 0x96C3C, size: 0x8, addend: 0x0, symName: _fluid_rvoice_eventhandler_finished_voice_callback, symObjAddr: 0x19C, symBinAddr: 0x23EE4, symSize: 0xBC }
  - { offset: 0x96D92, size: 0x8, addend: 0x0, symName: _new_fluid_rvoice_eventhandler, symObjAddr: 0x258, symBinAddr: 0x23FA0, symSize: 0x128 }
  - { offset: 0x97012, size: 0x8, addend: 0x0, symName: _delete_fluid_rvoice_eventhandler, symObjAddr: 0x380, symBinAddr: 0x240C8, symSize: 0x44 }
  - { offset: 0x9707C, size: 0x8, addend: 0x0, symName: _fluid_rvoice_eventhandler_dispatch_count, symObjAddr: 0x3C4, symBinAddr: 0x2410C, symSize: 0x3C }
  - { offset: 0x971FF, size: 0x8, addend: 0x0, symName: _fluid_rvoice_eventhandler_dispatch_all, symObjAddr: 0x400, symBinAddr: 0x24148, symSize: 0xD0 }
  - { offset: 0x979DA, size: 0x8, addend: 0x0, symName: _fluid_rvoice_mixer_add_voice, symObjAddr: 0x0, symBinAddr: 0x24218, symSize: 0x11C }
  - { offset: 0x979F6, size: 0x8, addend: 0x0, symName: _fluid_mixer_buffers_init, symObjAddr: 0x480, symBinAddr: 0x2460C, symSize: 0x100 }
  - { offset: 0x98603, size: 0x8, addend: 0x0, symName: _fluid_rvoice_mixer_add_voice, symObjAddr: 0x0, symBinAddr: 0x24218, symSize: 0x11C }
  - { offset: 0x98714, size: 0x8, addend: 0x0, symName: _fluid_rvoice_mixer_set_polyphony, symObjAddr: 0x11C, symBinAddr: 0x24334, symSize: 0x130 }
  - { offset: 0x98840, size: 0x8, addend: 0x0, symName: _new_fluid_rvoice_mixer, symObjAddr: 0x2D8, symBinAddr: 0x24464, symSize: 0x1A8 }
  - { offset: 0x98A45, size: 0x8, addend: 0x0, symName: _fluid_rvoice_mixer_set_threads, symObjAddr: 0x580, symBinAddr: 0x2470C, symSize: 0x198 }
  - { offset: 0x98BD0, size: 0x8, addend: 0x0, symName: _delete_fluid_rvoice_mixer, symObjAddr: 0x718, symBinAddr: 0x248A4, symSize: 0xF8 }
  - { offset: 0x98D17, size: 0x8, addend: 0x0, symName: _delete_rvoice_mixer_threads, symObjAddr: 0x810, symBinAddr: 0x2499C, symSize: 0x14C }
  - { offset: 0x98FB6, size: 0x8, addend: 0x0, symName: _fluid_rvoice_mixer_set_reverb_full, symObjAddr: 0x95C, symBinAddr: 0x24AE8, symSize: 0x8C }
  - { offset: 0x9904A, size: 0x8, addend: 0x0, symName: _fluid_rvoice_mixer_reverb_get_param, symObjAddr: 0x9E8, symBinAddr: 0x24B74, symSize: 0x18 }
  - { offset: 0x99093, size: 0x8, addend: 0x0, symName: _fluid_rvoice_mixer_set_chorus_full, symObjAddr: 0xA00, symBinAddr: 0x24B8C, symSize: 0x9C }
  - { offset: 0x99127, size: 0x8, addend: 0x0, symName: _fluid_rvoice_mixer_chorus_get_param, symObjAddr: 0xA9C, symBinAddr: 0x24C28, symSize: 0x18 }
  - { offset: 0x99170, size: 0x8, addend: 0x0, symName: _fluid_rvoice_mixer_set_reverb_enabled, symObjAddr: 0xAB4, symBinAddr: 0x24C40, symSize: 0xC }
  - { offset: 0x991C4, size: 0x8, addend: 0x0, symName: _fluid_rvoice_mixer_reverb_enable, symObjAddr: 0xAC0, symBinAddr: 0x24C4C, symSize: 0xBC }
  - { offset: 0x99234, size: 0x8, addend: 0x0, symName: _fluid_rvoice_mixer_set_chorus_enabled, symObjAddr: 0xB7C, symBinAddr: 0x24D08, symSize: 0xC }
  - { offset: 0x99288, size: 0x8, addend: 0x0, symName: _fluid_rvoice_mixer_chorus_enable, symObjAddr: 0xB88, symBinAddr: 0x24D14, symSize: 0xBC }
  - { offset: 0x992F8, size: 0x8, addend: 0x0, symName: _fluid_rvoice_mixer_set_mix_fx, symObjAddr: 0xC44, symBinAddr: 0x24DD0, symSize: 0x8 }
  - { offset: 0x9932D, size: 0x8, addend: 0x0, symName: _fluid_rvoice_mixer_set_chorus_params, symObjAddr: 0xC4C, symBinAddr: 0x24DD8, symSize: 0xB8 }
  - { offset: 0x9943F, size: 0x8, addend: 0x0, symName: _fluid_rvoice_mixer_set_reverb_params, symObjAddr: 0xD04, symBinAddr: 0x24E90, symSize: 0xA0 }
  - { offset: 0x99530, size: 0x8, addend: 0x0, symName: _fluid_rvoice_mixer_reset_reverb, symObjAddr: 0xDA4, symBinAddr: 0x24F30, symSize: 0x58 }
  - { offset: 0x995A1, size: 0x8, addend: 0x0, symName: _fluid_rvoice_mixer_reset_chorus, symObjAddr: 0xDFC, symBinAddr: 0x24F88, symSize: 0x58 }
  - { offset: 0x99663, size: 0x8, addend: 0x0, symName: _fluid_rvoice_mixer_get_bufs, symObjAddr: 0xE54, symBinAddr: 0x24FE0, symSize: 0x30 }
  - { offset: 0x9972D, size: 0x8, addend: 0x0, symName: _fluid_rvoice_mixer_get_fx_bufs, symObjAddr: 0xE84, symBinAddr: 0x25010, symSize: 0x30 }
  - { offset: 0x997F7, size: 0x8, addend: 0x0, symName: _fluid_rvoice_mixer_get_bufcount, symObjAddr: 0xEB4, symBinAddr: 0x25040, symSize: 0x8 }
  - { offset: 0x999BB, size: 0x8, addend: 0x0, symName: _fluid_rvoice_mixer_render, symObjAddr: 0xEBC, symBinAddr: 0x25048, symSize: 0x538 }
  - { offset: 0x99CB2, size: 0x8, addend: 0x0, symName: _fluid_mixer_buffers_zero, symObjAddr: 0x13F4, symBinAddr: 0x25580, symSize: 0xDC }
  - { offset: 0x99DD5, size: 0x8, addend: 0x0, symName: _fluid_render_loop_multithread, symObjAddr: 0x14D0, symBinAddr: 0x2565C, symSize: 0x87C }
  - { offset: 0x9A2AA, size: 0x8, addend: 0x0, symName: _fluid_render_loop_singlethread, symObjAddr: 0x1D4C, symBinAddr: 0x25ED8, symSize: 0xFFC }
  - { offset: 0x9A75E, size: 0x8, addend: 0x0, symName: _fluid_mixer_buffers_prepare, symObjAddr: 0x3D80, symBinAddr: 0x27F0C, symSize: 0x248 }
  - { offset: 0x9A84B, size: 0x8, addend: 0x0, symName: _fluid_rvoice_buffers_mix, symObjAddr: 0x3FC8, symBinAddr: 0x28154, symSize: 0xA48 }
  - { offset: 0x9AA30, size: 0x8, addend: 0x0, symName: _fluid_mixer_thread_func, symObjAddr: 0x2D48, symBinAddr: 0x26ED4, symSize: 0x1038 }
  - { offset: 0x9AF6F, size: 0x8, addend: 0x0, symName: _new_fluid_revmodel, symObjAddr: 0x0, symBinAddr: 0x28B9C, symSize: 0x440 }
  - { offset: 0x9AF98, size: 0x8, addend: 0x0, symName: _nom_delay_length, symObjAddr: 0x158C, symBinAddr: 0x59F08, symSize: 0x0 }
  - { offset: 0x9B324, size: 0x8, addend: 0x0, symName: _new_fluid_revmodel, symObjAddr: 0x0, symBinAddr: 0x28B9C, symSize: 0x440 }
  - { offset: 0x9B636, size: 0x8, addend: 0x0, symName: _initialize_mod_delay_lines, symObjAddr: 0x4AC, symBinAddr: 0x29048, symSize: 0x228 }
  - { offset: 0x9B78C, size: 0x8, addend: 0x0, symName: _delete_fluid_revmodel, symObjAddr: 0x440, symBinAddr: 0x28FDC, symSize: 0x6C }
  - { offset: 0x9B925, size: 0x8, addend: 0x0, symName: _fluid_revmodel_set, symObjAddr: 0x6D4, symBinAddr: 0x29270, symSize: 0x128 }
  - { offset: 0x9BA02, size: 0x8, addend: 0x0, symName: _update_rev_time_damping, symObjAddr: 0x884, symBinAddr: 0x29398, symSize: 0x334 }
  - { offset: 0x9BC13, size: 0x8, addend: 0x0, symName: _fluid_revmodel_reset, symObjAddr: 0xBB8, symBinAddr: 0x296CC, symSize: 0x128 }
  - { offset: 0x9BCEE, size: 0x8, addend: 0x0, symName: _fluid_revmodel_processreplace, symObjAddr: 0xCE0, symBinAddr: 0x297F4, symSize: 0x400 }
  - { offset: 0x9BE83, size: 0x8, addend: 0x0, symName: _fluid_revmodel_processmix, symObjAddr: 0x10E0, symBinAddr: 0x29BF4, symSize: 0x410 }
  - { offset: 0x9C048, size: 0x8, addend: 0x0, symName: _new_fluid_channel, symObjAddr: 0x0, symBinAddr: 0x2A004, symSize: 0x80 }
  - { offset: 0x9C063, size: 0x8, addend: 0x0, symName: _fluid_channel_portamentotime_with_mode, symObjAddr: 0xB48, symBinAddr: 0x2AB4C, symSize: 0x130 }
  - { offset: 0x9D70B, size: 0x8, addend: 0x0, symName: _new_fluid_channel, symObjAddr: 0x0, symBinAddr: 0x2A004, symSize: 0x80 }
  - { offset: 0x9D7B8, size: 0x8, addend: 0x0, symName: _fluid_channel_init, symObjAddr: 0x80, symBinAddr: 0x2A084, symSize: 0x150 }
  - { offset: 0x9D890, size: 0x8, addend: 0x0, symName: _fluid_channel_init_ctrl, symObjAddr: 0x1D0, symBinAddr: 0x2A1D4, symSize: 0x324 }
  - { offset: 0x9D946, size: 0x8, addend: 0x0, symName: _delete_fluid_channel, symObjAddr: 0x4F4, symBinAddr: 0x2A4F8, symSize: 0xC }
  - { offset: 0x9D983, size: 0x8, addend: 0x0, symName: _fluid_channel_reset, symObjAddr: 0x500, symBinAddr: 0x2A504, symSize: 0x28 }
  - { offset: 0x9D9D0, size: 0x8, addend: 0x0, symName: _fluid_channel_set_preset, symObjAddr: 0x528, symBinAddr: 0x2A52C, symSize: 0x94 }
  - { offset: 0x9DA22, size: 0x8, addend: 0x0, symName: _fluid_channel_set_sfont_bank_prog, symObjAddr: 0x5BC, symBinAddr: 0x2A5C0, symSize: 0x60 }
  - { offset: 0x9DAA6, size: 0x8, addend: 0x0, symName: _fluid_channel_set_bank_lsb, symObjAddr: 0x61C, symBinAddr: 0x2A620, symSize: 0x44 }
  - { offset: 0x9DB0C, size: 0x8, addend: 0x0, symName: _fluid_channel_set_bank_msb, symObjAddr: 0x660, symBinAddr: 0x2A664, symSize: 0x88 }
  - { offset: 0x9DB73, size: 0x8, addend: 0x0, symName: _fluid_channel_get_sfont_bank_prog, symObjAddr: 0x6E8, symBinAddr: 0x2A6EC, symSize: 0x2C }
  - { offset: 0x9DBD7, size: 0x8, addend: 0x0, symName: _fluid_channel_get_key_pitch, symObjAddr: 0x714, symBinAddr: 0x2A718, symSize: 0x44 }
  - { offset: 0x9DC28, size: 0x8, addend: 0x0, symName: _fluid_channel_add_monolist, symObjAddr: 0x758, symBinAddr: 0x2A75C, symSize: 0x84 }
  - { offset: 0x9DC7F, size: 0x8, addend: 0x0, symName: _fluid_channel_search_monolist, symObjAddr: 0x7DC, symBinAddr: 0x2A7E0, symSize: 0x84 }
  - { offset: 0x9DCF5, size: 0x8, addend: 0x0, symName: _fluid_channel_remove_monolist, symObjAddr: 0x860, symBinAddr: 0x2A864, symSize: 0xC0 }
  - { offset: 0x9DD67, size: 0x8, addend: 0x0, symName: _fluid_channel_clear_monolist, symObjAddr: 0x920, symBinAddr: 0x2A924, symSize: 0x30 }
  - { offset: 0x9DDD4, size: 0x8, addend: 0x0, symName: _fluid_channel_set_onenote_monolist, symObjAddr: 0x950, symBinAddr: 0x2A954, symSize: 0x5C }
  - { offset: 0x9DE1B, size: 0x8, addend: 0x0, symName: _fluid_channel_set_onenote_monolist, symObjAddr: 0x950, symBinAddr: 0x2A954, symSize: 0x5C }
  - { offset: 0x9DE71, size: 0x8, addend: 0x0, symName: _fluid_channel_invalid_prev_note_staccato, symObjAddr: 0x9AC, symBinAddr: 0x2A9B0, symSize: 0x20 }
  - { offset: 0x9DE98, size: 0x8, addend: 0x0, symName: _fluid_channel_cc_legato, symObjAddr: 0x9CC, symBinAddr: 0x2A9D0, symSize: 0x60 }
  - { offset: 0x9DF03, size: 0x8, addend: 0x0, symName: _fluid_channel_cc_breath_note_on_off, symObjAddr: 0xA2C, symBinAddr: 0x2AA30, symSize: 0xE0 }
  - { offset: 0x9DF7C, size: 0x8, addend: 0x0, symName: _fluid_channel_get_override_gen_default, symObjAddr: 0xB0C, symBinAddr: 0x2AB10, symSize: 0x28 }
  - { offset: 0x9DFC6, size: 0x8, addend: 0x0, symName: _fluid_channel_set_override_gen_default, symObjAddr: 0xB34, symBinAddr: 0x2AB38, symSize: 0x14 }
  - { offset: 0x9E05D, size: 0x8, addend: 0x0, symName: _fluid_event_clear, symObjAddr: 0x0, symBinAddr: 0x2AC7C, symSize: 0x24 }
  - { offset: 0x9E16D, size: 0x8, addend: 0x0, symName: _fluid_event_clear, symObjAddr: 0x0, symBinAddr: 0x2AC7C, symSize: 0x24 }
  - { offset: 0x9E19C, size: 0x8, addend: 0x0, symName: _new_fluid_event, symObjAddr: 0x24, symBinAddr: 0x2ACA0, symSize: 0x64 }
  - { offset: 0x9E252, size: 0x8, addend: 0x0, symName: _delete_fluid_event, symObjAddr: 0x88, symBinAddr: 0x2AD04, symSize: 0xC }
  - { offset: 0x9E28F, size: 0x8, addend: 0x0, symName: _fluid_event_set_time, symObjAddr: 0x94, symBinAddr: 0x2AD10, symSize: 0x8 }
  - { offset: 0x9E2BF, size: 0x8, addend: 0x0, symName: _fluid_event_set_id, symObjAddr: 0x9C, symBinAddr: 0x2AD18, symSize: 0x8 }
  - { offset: 0x9E2EF, size: 0x8, addend: 0x0, symName: _fluid_event_set_source, symObjAddr: 0xA4, symBinAddr: 0x2AD20, symSize: 0x8 }
  - { offset: 0x9E31F, size: 0x8, addend: 0x0, symName: _fluid_event_set_dest, symObjAddr: 0xAC, symBinAddr: 0x2AD28, symSize: 0x8 }
  - { offset: 0x9E34F, size: 0x8, addend: 0x0, symName: _fluid_event_timer, symObjAddr: 0xB4, symBinAddr: 0x2AD30, symSize: 0x10 }
  - { offset: 0x9E380, size: 0x8, addend: 0x0, symName: _fluid_event_noteon, symObjAddr: 0xC4, symBinAddr: 0x2AD40, symSize: 0x30 }
  - { offset: 0x9E3B1, size: 0x8, addend: 0x0, symName: _fluid_event_noteoff, symObjAddr: 0xF4, symBinAddr: 0x2AD70, symSize: 0x14 }
  - { offset: 0x9E3DA, size: 0x8, addend: 0x0, symName: _fluid_event_note, symObjAddr: 0x108, symBinAddr: 0x2AD84, symSize: 0x18 }
  - { offset: 0x9E431, size: 0x8, addend: 0x0, symName: _fluid_event_all_sounds_off, symObjAddr: 0x120, symBinAddr: 0x2AD9C, symSize: 0x10 }
  - { offset: 0x9E461, size: 0x8, addend: 0x0, symName: _fluid_event_all_notes_off, symObjAddr: 0x130, symBinAddr: 0x2ADAC, symSize: 0x10 }
  - { offset: 0x9E491, size: 0x8, addend: 0x0, symName: _fluid_event_bank_select, symObjAddr: 0x140, symBinAddr: 0x2ADBC, symSize: 0x14 }
  - { offset: 0x9E4CF, size: 0x8, addend: 0x0, symName: _fluid_event_program_change, symObjAddr: 0x154, symBinAddr: 0x2ADD0, symSize: 0x14 }
  - { offset: 0x9E4F9, size: 0x8, addend: 0x0, symName: _fluid_event_program_select, symObjAddr: 0x168, symBinAddr: 0x2ADE4, symSize: 0x1C }
  - { offset: 0x9E55C, size: 0x8, addend: 0x0, symName: _fluid_event_pitch_bend, symObjAddr: 0x184, symBinAddr: 0x2AE00, symSize: 0x24 }
  - { offset: 0x9E588, size: 0x8, addend: 0x0, symName: _fluid_event_pitch_wheelsens, symObjAddr: 0x1A8, symBinAddr: 0x2AE24, symSize: 0x14 }
  - { offset: 0x9E5CD, size: 0x8, addend: 0x0, symName: _fluid_event_modulation, symObjAddr: 0x1BC, symBinAddr: 0x2AE38, symSize: 0x24 }
  - { offset: 0x9E613, size: 0x8, addend: 0x0, symName: _fluid_event_sustain, symObjAddr: 0x1E0, symBinAddr: 0x2AE5C, symSize: 0x24 }
  - { offset: 0x9E659, size: 0x8, addend: 0x0, symName: _fluid_event_control_change, symObjAddr: 0x204, symBinAddr: 0x2AE80, symSize: 0x18 }
  - { offset: 0x9E68A, size: 0x8, addend: 0x0, symName: _fluid_event_pan, symObjAddr: 0x21C, symBinAddr: 0x2AE98, symSize: 0x24 }
  - { offset: 0x9E6D0, size: 0x8, addend: 0x0, symName: _fluid_event_volume, symObjAddr: 0x240, symBinAddr: 0x2AEBC, symSize: 0x24 }
  - { offset: 0x9E716, size: 0x8, addend: 0x0, symName: _fluid_event_reverb_send, symObjAddr: 0x264, symBinAddr: 0x2AEE0, symSize: 0x24 }
  - { offset: 0x9E75C, size: 0x8, addend: 0x0, symName: _fluid_event_chorus_send, symObjAddr: 0x288, symBinAddr: 0x2AF04, symSize: 0x24 }
  - { offset: 0x9E7A2, size: 0x8, addend: 0x0, symName: _fluid_event_unregistering, symObjAddr: 0x2AC, symBinAddr: 0x2AF28, symSize: 0xC }
  - { offset: 0x9E7C9, size: 0x8, addend: 0x0, symName: _fluid_event_scale, symObjAddr: 0x2B8, symBinAddr: 0x2AF34, symSize: 0x10 }
  - { offset: 0x9E800, size: 0x8, addend: 0x0, symName: _fluid_event_channel_pressure, symObjAddr: 0x2C8, symBinAddr: 0x2AF44, symSize: 0x24 }
  - { offset: 0x9E82C, size: 0x8, addend: 0x0, symName: _fluid_event_key_pressure, symObjAddr: 0x2EC, symBinAddr: 0x2AF68, symSize: 0x34 }
  - { offset: 0x9E861, size: 0x8, addend: 0x0, symName: _fluid_event_system_reset, symObjAddr: 0x320, symBinAddr: 0x2AF9C, symSize: 0xC }
  - { offset: 0x9E9EB, size: 0x8, addend: 0x0, symName: _fluid_event_from_midi_event, symObjAddr: 0x32C, symBinAddr: 0x2AFA8, symSize: 0x298 }
  - { offset: 0x9ED91, size: 0x8, addend: 0x0, symName: _fluid_event_get_type, symObjAddr: 0x5C4, symBinAddr: 0x2B240, symSize: 0x8 }
  - { offset: 0x9EDBD, size: 0x8, addend: 0x0, symName: _fluid_event_get_id, symObjAddr: 0x5D4, symBinAddr: 0x2B248, symSize: 0x8 }
  - { offset: 0x9EDE9, size: 0x8, addend: 0x0, symName: _fluid_event_get_source, symObjAddr: 0x5DC, symBinAddr: 0x2B250, symSize: 0x8 }
  - { offset: 0x9EE15, size: 0x8, addend: 0x0, symName: _fluid_event_get_dest, symObjAddr: 0x5E4, symBinAddr: 0x2B258, symSize: 0x8 }
  - { offset: 0x9EE41, size: 0x8, addend: 0x0, symName: _fluid_event_get_channel, symObjAddr: 0x5EC, symBinAddr: 0x2B260, symSize: 0x8 }
  - { offset: 0x9EE6D, size: 0x8, addend: 0x0, symName: _fluid_event_get_key, symObjAddr: 0x5F4, symBinAddr: 0x2B268, symSize: 0x8 }
  - { offset: 0x9EE99, size: 0x8, addend: 0x0, symName: _fluid_event_get_velocity, symObjAddr: 0x5FC, symBinAddr: 0x2B270, symSize: 0x8 }
  - { offset: 0x9EEC5, size: 0x8, addend: 0x0, symName: _fluid_event_get_control, symObjAddr: 0x604, symBinAddr: 0x2B278, symSize: 0x8 }
  - { offset: 0x9EEF1, size: 0x8, addend: 0x0, symName: _fluid_event_get_value, symObjAddr: 0x60C, symBinAddr: 0x2B280, symSize: 0x8 }
  - { offset: 0x9EF1D, size: 0x8, addend: 0x0, symName: _fluid_event_get_data, symObjAddr: 0x614, symBinAddr: 0x2B288, symSize: 0x8 }
  - { offset: 0x9EF49, size: 0x8, addend: 0x0, symName: _fluid_event_get_duration, symObjAddr: 0x61C, symBinAddr: 0x2B290, symSize: 0x8 }
  - { offset: 0x9EF75, size: 0x8, addend: 0x0, symName: _fluid_event_get_bank, symObjAddr: 0x624, symBinAddr: 0x2B298, symSize: 0x8 }
  - { offset: 0x9EFA1, size: 0x8, addend: 0x0, symName: _fluid_event_get_pitch, symObjAddr: 0x62C, symBinAddr: 0x2B2A0, symSize: 0x8 }
  - { offset: 0x9EFCD, size: 0x8, addend: 0x0, symName: _fluid_event_get_program, symObjAddr: 0x634, symBinAddr: 0x2B2A8, symSize: 0x8 }
  - { offset: 0x9EFF9, size: 0x8, addend: 0x0, symName: _fluid_event_get_sfont_id, symObjAddr: 0x63C, symBinAddr: 0x2B2B0, symSize: 0x8 }
  - { offset: 0x9F025, size: 0x8, addend: 0x0, symName: _fluid_event_get_scale, symObjAddr: 0x644, symBinAddr: 0x2B2B8, symSize: 0x8 }
  - { offset: 0x9F075, size: 0x8, addend: 0x0, symName: _fluid_gen_init, symObjAddr: 0x0, symBinAddr: 0x2B2C0, symSize: 0x80 }
  - { offset: 0x9F082, size: 0x8, addend: 0x0, symName: _fluid_gen_name, symObjAddr: 0xD8, symBinAddr: 0x2B374, symSize: 0x74 }
  - { offset: 0x9F0A7, size: 0x8, addend: 0x0, symName: _fluid_gen_name.num, symObjAddr: 0x2C1E, symBinAddr: 0x6C558, symSize: 0x0 }
  - { offset: 0x9F0E6, size: 0x8, addend: 0x0, symName: _fluid_gen_info, symObjAddr: 0x150, symBinAddr: 0x682C0, symSize: 0x0 }
  - { offset: 0x9F3C7, size: 0x8, addend: 0x0, symName: _fluid_gen_init, symObjAddr: 0x0, symBinAddr: 0x2B2C0, symSize: 0x80 }
  - { offset: 0x9F406, size: 0x8, addend: 0x0, symName: _fluid_gen_scale_nrpn, symObjAddr: 0xA4, symBinAddr: 0x2B340, symSize: 0x34 }
  - { offset: 0x9F77F, size: 0x8, addend: 0x0, symName: _fluid_mod_clone, symObjAddr: 0x0, symBinAddr: 0x2B3E8, symSize: 0x24 }
  - { offset: 0x9F79A, size: 0x8, addend: 0x0, symName: _fluid_mod_check_sources, symObjAddr: 0x6C8, symBinAddr: 0x2BAB0, symSize: 0x198 }
  - { offset: 0x9F7C2, size: 0x8, addend: 0x0, symName: _fluid_mod_check_sources.invalid_non_cc_src, symObjAddr: 0xA48, symBinAddr: 0x59F48, symSize: 0x0 }
  - { offset: 0x9F7D9, size: 0x8, addend: 0x0, symName: _fluid_mod_check_sources.invalid_cc_src, symObjAddr: 0xA7B, symBinAddr: 0x59F7B, symSize: 0x0 }
  - { offset: 0x9F7F0, size: 0x8, addend: 0x0, symName: _fluid_mod_check_sources.src1_is_none, symObjAddr: 0xAAA, symBinAddr: 0x59FAA, symSize: 0x0 }
  - { offset: 0x9FCA7, size: 0x8, addend: 0x0, symName: _fluid_mod_clone, symObjAddr: 0x0, symBinAddr: 0x2B3E8, symSize: 0x24 }
  - { offset: 0x9FCD7, size: 0x8, addend: 0x0, symName: _fluid_mod_set_source1, symObjAddr: 0x24, symBinAddr: 0x2B40C, symSize: 0x4C }
  - { offset: 0x9FD49, size: 0x8, addend: 0x0, symName: _fluid_mod_set_source2, symObjAddr: 0x70, symBinAddr: 0x2B458, symSize: 0x4C }
  - { offset: 0x9FD9F, size: 0x8, addend: 0x0, symName: _fluid_mod_set_dest, symObjAddr: 0xBC, symBinAddr: 0x2B4A4, symSize: 0x8 }
  - { offset: 0x9FDCF, size: 0x8, addend: 0x0, symName: _fluid_mod_set_amount, symObjAddr: 0xC4, symBinAddr: 0x2B4AC, symSize: 0x8 }
  - { offset: 0x9FE00, size: 0x8, addend: 0x0, symName: _fluid_mod_set_custom_mapping, symObjAddr: 0xCC, symBinAddr: 0x2B4B4, symSize: 0x8 }
  - { offset: 0x9FE3D, size: 0x8, addend: 0x0, symName: _fluid_mod_set_transform, symObjAddr: 0xD4, symBinAddr: 0x2B4BC, symSize: 0x40 }
  - { offset: 0x9FE93, size: 0x8, addend: 0x0, symName: _fluid_mod_get_source1, symObjAddr: 0x114, symBinAddr: 0x2B4FC, symSize: 0x8 }
  - { offset: 0x9FEBC, size: 0x8, addend: 0x0, symName: _fluid_mod_get_flags1, symObjAddr: 0x11C, symBinAddr: 0x2B504, symSize: 0x8 }
  - { offset: 0x9FEE5, size: 0x8, addend: 0x0, symName: _fluid_mod_get_source2, symObjAddr: 0x124, symBinAddr: 0x2B50C, symSize: 0x8 }
  - { offset: 0x9FF0E, size: 0x8, addend: 0x0, symName: _fluid_mod_get_flags2, symObjAddr: 0x12C, symBinAddr: 0x2B514, symSize: 0x8 }
  - { offset: 0x9FF37, size: 0x8, addend: 0x0, symName: _fluid_mod_get_dest, symObjAddr: 0x134, symBinAddr: 0x2B51C, symSize: 0x8 }
  - { offset: 0x9FF60, size: 0x8, addend: 0x0, symName: _fluid_mod_get_amount, symObjAddr: 0x13C, symBinAddr: 0x2B524, symSize: 0x8 }
  - { offset: 0x9FF87, size: 0x8, addend: 0x0, symName: _fluid_mod_get_transform, symObjAddr: 0x144, symBinAddr: 0x2B52C, symSize: 0x8 }
  - { offset: 0x9FFB0, size: 0x8, addend: 0x0, symName: _fluid_mod_get_source_value, symObjAddr: 0x14C, symBinAddr: 0x2B534, symSize: 0x160 }
  - { offset: 0xA0E56, size: 0x8, addend: 0x0, symName: _fluid_mod_transform_source_value, symObjAddr: 0x2AC, symBinAddr: 0x2B694, symSize: 0x240 }
  - { offset: 0xA0FA3, size: 0x8, addend: 0x0, symName: _fluid_mod_get_value, symObjAddr: 0x4EC, symBinAddr: 0x2B8D4, symSize: 0xF4 }
  - { offset: 0xA10B3, size: 0x8, addend: 0x0, symName: _fluid_mod_test_identity, symObjAddr: 0x5E0, symBinAddr: 0x2B9C8, symSize: 0x5C }
  - { offset: 0xA10D7, size: 0x8, addend: 0x0, symName: _new_fluid_mod, symObjAddr: 0x63C, symBinAddr: 0x2BA24, symSize: 0x54 }
  - { offset: 0xA113B, size: 0x8, addend: 0x0, symName: _delete_fluid_mod, symObjAddr: 0x690, symBinAddr: 0x2BA78, symSize: 0x4 }
  - { offset: 0xA1159, size: 0x8, addend: 0x0, symName: _delete_fluid_mod, symObjAddr: 0x690, symBinAddr: 0x2BA78, symSize: 0x4 }
  - { offset: 0xA118E, size: 0x8, addend: 0x0, symName: _delete_fluid_list_mod, symObjAddr: 0x694, symBinAddr: 0x2BA7C, symSize: 0x2C }
  - { offset: 0xA11F2, size: 0x8, addend: 0x0, symName: _fluid_mod_sizeof, symObjAddr: 0x6C0, symBinAddr: 0x2BAA8, symSize: 0x8 }
  - { offset: 0xA1289, size: 0x8, addend: 0x0, symName: _fluid_mod_has_source, symObjAddr: 0x860, symBinAddr: 0x2BC48, symSize: 0x70 }
  - { offset: 0xA12D3, size: 0x8, addend: 0x0, symName: _fluid_mod_has_dest, symObjAddr: 0x8D0, symBinAddr: 0x2BCB8, symSize: 0x10 }
  - { offset: 0xA1351, size: 0x8, addend: 0x0, symName: _fluid_synth_settings, symObjAddr: 0x0, symBinAddr: 0x2BCC8, symSize: 0x630 }
  - { offset: 0xA1378, size: 0x8, addend: 0x0, symName: _fluid_synth_reverb_set_param, symObjAddr: 0x9C4C, symBinAddr: 0x35444, symSize: 0x120 }
  - { offset: 0xA13A0, size: 0x8, addend: 0x0, symName: _fluid_synth_reverb_set_param.name, symObjAddr: 0xDED0, symBinAddr: 0x68AA0, symSize: 0x0 }
  - { offset: 0xA14B5, size: 0x8, addend: 0x0, symName: _fluid_synth_chorus_set_param, symObjAddr: 0xA2A8, symBinAddr: 0x35AA0, symSize: 0x18C }
  - { offset: 0xA14D6, size: 0x8, addend: 0x0, symName: _fluid_synth_chorus_set_param.name, symObjAddr: 0xDEF0, symBinAddr: 0x68AC0, symSize: 0x0 }
  - { offset: 0xA15EB, size: 0x8, addend: 0x0, symName: _default_vel2att_mod, symBinAddr: 0xCA380, symSize: 0x0 }
  - { offset: 0xA16E1, size: 0x8, addend: 0x0, symName: _default_vel2filter_mod, symBinAddr: 0xCA3A8, symSize: 0x0 }
  - { offset: 0xA16F7, size: 0x8, addend: 0x0, symName: _default_at2viblfo_mod, symBinAddr: 0xCA240, symSize: 0x0 }
  - { offset: 0xA170D, size: 0x8, addend: 0x0, symName: _default_mod2viblfo_mod, symBinAddr: 0xCA2E0, symSize: 0x0 }
  - { offset: 0xA1723, size: 0x8, addend: 0x0, symName: _default_att_mod, symBinAddr: 0xCA268, symSize: 0x0 }
  - { offset: 0xA1739, size: 0x8, addend: 0x0, symName: _default_pan_mod, symBinAddr: 0xCA308, symSize: 0x0 }
  - { offset: 0xA174F, size: 0x8, addend: 0x0, symName: _default_expr_mod, symBinAddr: 0xCA2B8, symSize: 0x0 }
  - { offset: 0xA1765, size: 0x8, addend: 0x0, symName: _default_reverb_mod, symBinAddr: 0xCA358, symSize: 0x0 }
  - { offset: 0xA177B, size: 0x8, addend: 0x0, symName: _default_chorus_mod, symBinAddr: 0xCA290, symSize: 0x0 }
  - { offset: 0xA1791, size: 0x8, addend: 0x0, symName: _default_pitch_bend_mod, symBinAddr: 0xCA330, symSize: 0x0 }
  - { offset: 0xA17A7, size: 0x8, addend: 0x0, symName: _custom_balance_mod, symBinAddr: 0xCA218, symSize: 0x0 }
  - { offset: 0xA17BD, size: 0x8, addend: 0x0, symName: _DLS_default_reverb_mod, symBinAddr: 0xCA1F0, symSize: 0x0 }
  - { offset: 0xA17D3, size: 0x8, addend: 0x0, symName: _DLS_default_chorus_mod, symBinAddr: 0xCA1A0, symSize: 0x0 }
  - { offset: 0xA17E9, size: 0x8, addend: 0x0, symName: _DLS_default_pitch_bend_mod, symBinAddr: 0xCA1C8, symSize: 0x0 }
  - { offset: 0xA17FE, size: 0x8, addend: 0x0, symName: __MergedGlobals, symObjAddr: 0xA3E80, symBinAddr: 0xCA168, symSize: 0x0 }
  - { offset: 0xA1817, size: 0x8, addend: 0x0, symName: _rand_table, symObjAddr: 0x46280, symBinAddr: 0x6C568, symSize: 0x0 }
  - { offset: 0xA1846, size: 0x8, addend: 0x0, symName: __MergedGlobals, symObjAddr: 0xA3E80, symBinAddr: 0xCA168, symSize: 0x0 }
  - { offset: 0xA1862, size: 0x8, addend: 0x0, symName: _fluid_synth_cc_LOCAL, symObjAddr: 0x32FC, symBinAddr: 0x2EFBC, symSize: 0x810 }
  - { offset: 0xA188A, size: 0x8, addend: 0x0, symName: _fluid_synth_cc_LOCAL.poly_mono_str, symObjAddr: 0xDF10, symBinAddr: 0x68AE0, symSize: 0x0 }
  - { offset: 0xA1F85, size: 0x8, addend: 0x0, symName: _fluid_synth_process_awe32_nrpn_LOCAL, symObjAddr: 0xC7F0, symBinAddr: 0x37FE8, symSize: 0x440 }
  - { offset: 0xA1FA9, size: 0x8, addend: 0x0, symName: _fluid_synth_process_awe32_nrpn_LOCAL.awe32_to_sf2_gen, symObjAddr: 0xCD70, symBinAddr: 0x5A120, symSize: 0x0 }
  - { offset: 0xA38E6, size: 0x8, addend: 0x0, symName: _fluid_synth_settings, symObjAddr: 0x0, symBinAddr: 0x2BCC8, symSize: 0x630 }
  - { offset: 0xA3F4D, size: 0x8, addend: 0x0, symName: _fluid_version, symObjAddr: 0x630, symBinAddr: 0x2C2F8, symSize: 0x1C }
  - { offset: 0xA3F92, size: 0x8, addend: 0x0, symName: _fluid_version_str, symObjAddr: 0x64C, symBinAddr: 0x2C314, symSize: 0xC }
  - { offset: 0xA4017, size: 0x8, addend: 0x0, symName: _new_fluid_sample_timer, symObjAddr: 0x658, symBinAddr: 0x2C320, symSize: 0xA0 }
  - { offset: 0xA416C, size: 0x8, addend: 0x0, symName: _fluid_sample_timer_reset, symObjAddr: 0x6F8, symBinAddr: 0x2C3C0, symSize: 0x4C }
  - { offset: 0xA41F9, size: 0x8, addend: 0x0, symName: _delete_fluid_sample_timer, symObjAddr: 0x744, symBinAddr: 0x2C40C, symSize: 0x34 }
  - { offset: 0xA461E, size: 0x8, addend: 0x0, symName: _new_fluid_synth, symObjAddr: 0x778, symBinAddr: 0x2C440, symSize: 0x12D0 }
  - { offset: 0xA5EA5, size: 0x8, addend: 0x0, symName: _fluid_synth_set_important_channels, symObjAddr: 0x206C, symBinAddr: 0x2DD34, symSize: 0x120 }
  - { offset: 0xA5FFC, size: 0x8, addend: 0x0, symName: _fluid_synth_add_default_mod, symObjAddr: 0x218C, symBinAddr: 0x2DE54, symSize: 0x110 }
  - { offset: 0xA610C, size: 0x8, addend: 0x0, symName: _fluid_synth_api_enter, symObjAddr: 0x2D94, symBinAddr: 0x2EA54, symSize: 0x158 }
  - { offset: 0xA62E0, size: 0x8, addend: 0x0, symName: _fluid_synth_api_exit, symObjAddr: 0x2EEC, symBinAddr: 0x2EBAC, symSize: 0xCC }
  - { offset: 0xA64C2, size: 0x8, addend: 0x0, symName: _delete_fluid_synth, symObjAddr: 0x26EC, symBinAddr: 0x2E3AC, symSize: 0x490 }
  - { offset: 0xA691E, size: 0x8, addend: 0x0, symName: _fluid_synth_all_notes_off_LOCAL, symObjAddr: 0x51B0, symBinAddr: 0x30E70, symSize: 0xC0 }
  - { offset: 0xA6AED, size: 0x8, addend: 0x0, symName: _fluid_synth_handle_gain, symObjAddr: 0x1A48, symBinAddr: 0x2D710, symSize: 0xA8 }
  - { offset: 0xA6BF1, size: 0x8, addend: 0x0, symName: _fluid_synth_handle_polyphony, symObjAddr: 0x1AF0, symBinAddr: 0x2D7B8, symSize: 0x8 }
  - { offset: 0xA6C5D, size: 0x8, addend: 0x0, symName: _fluid_synth_set_polyphony, symObjAddr: 0x6614, symBinAddr: 0x320F8, symSize: 0x13C }
  - { offset: 0xA6D9A, size: 0x8, addend: 0x0, symName: _fluid_synth_handle_device_id, symObjAddr: 0x1AF8, symBinAddr: 0x2D7C0, symSize: 0x34 }
  - { offset: 0xA6E08, size: 0x8, addend: 0x0, symName: _fluid_synth_handle_overflow, symObjAddr: 0x1B2C, symBinAddr: 0x2D7F4, symSize: 0x148 }
  - { offset: 0xA6F33, size: 0x8, addend: 0x0, symName: _fluid_synth_handle_important_channels, symObjAddr: 0x1C74, symBinAddr: 0x2D93C, symSize: 0x34 }
  - { offset: 0xA6FC3, size: 0x8, addend: 0x0, symName: _fluid_synth_handle_reverb_chorus_num, symObjAddr: 0x1CA8, symBinAddr: 0x2D970, symSize: 0x19C }
  - { offset: 0xA712C, size: 0x8, addend: 0x0, symName: _fluid_synth_handle_reverb_chorus_int, symObjAddr: 0x1E44, symBinAddr: 0x2DB0C, symSize: 0x160 }
  - { offset: 0xA72B0, size: 0x8, addend: 0x0, symName: _fluid_synth_handle_portamento_mode, symObjAddr: 0x1FA4, symBinAddr: 0x2DC6C, symSize: 0xC8 }
  - { offset: 0xA7431, size: 0x8, addend: 0x0, symName: _fluid_synth_add_sfloader, symObjAddr: 0x229C, symBinAddr: 0x2DF64, symSize: 0x5C }
  - { offset: 0xA7492, size: 0x8, addend: 0x0, symName: _fluid_synth_reverb_on, symObjAddr: 0x22F8, symBinAddr: 0x2DFC0, symSize: 0xE0 }
  - { offset: 0xA751B, size: 0x8, addend: 0x0, symName: _fluid_synth_chorus_on, symObjAddr: 0x23D8, symBinAddr: 0x2E0A0, symSize: 0xE0 }
  - { offset: 0xA75A4, size: 0x8, addend: 0x0, symName: _fluid_synth_set_reverb_full, symObjAddr: 0x24B8, symBinAddr: 0x2E180, symSize: 0x100 }
  - { offset: 0xA7614, size: 0x8, addend: 0x0, symName: _fluid_synth_set_chorus_full, symObjAddr: 0x25B8, symBinAddr: 0x2E280, symSize: 0x12C }
  - { offset: 0xA7772, size: 0x8, addend: 0x0, symName: _fluid_synth_error, symObjAddr: 0x2B7C, symBinAddr: 0x2E83C, symSize: 0xC }
  - { offset: 0xA7831, size: 0x8, addend: 0x0, symName: _fluid_synth_noteon, symObjAddr: 0x2B88, symBinAddr: 0x2E848, symSize: 0x20C }
  - { offset: 0xA7AF4, size: 0x8, addend: 0x0, symName: _fluid_synth_release_voice_on_same_note_LOCAL, symObjAddr: 0xABB8, symBinAddr: 0x363B0, symSize: 0x108 }
  - { offset: 0xA7D78, size: 0x8, addend: 0x0, symName: _fluid_synth_noteoff, symObjAddr: 0x2FB8, symBinAddr: 0x2EC78, symSize: 0x104 }
  - { offset: 0xA7EAE, size: 0x8, addend: 0x0, symName: _fluid_synth_remove_default_mod, symObjAddr: 0x30BC, symBinAddr: 0x2ED7C, symSize: 0xB4 }
  - { offset: 0xA7F7F, size: 0x8, addend: 0x0, symName: _fluid_synth_cc, symObjAddr: 0x3170, symBinAddr: 0x2EE30, symSize: 0x18C }
  - { offset: 0xA82C8, size: 0x8, addend: 0x0, symName: _fluid_synth_set_gen_LOCAL, symObjAddr: 0xB990, symBinAddr: 0x37188, symSize: 0xA0 }
  - { offset: 0xA83C3, size: 0x8, addend: 0x0, symName: _fluid_synth_all_sounds_off_LOCAL, symObjAddr: 0x52D4, symBinAddr: 0x30F94, symSize: 0xBC }
  - { offset: 0xA8493, size: 0x8, addend: 0x0, symName: _fluid_synth_activate_tuning, symObjAddr: 0xB464, symBinAddr: 0x36C5C, symSize: 0x168 }
  - { offset: 0xA86C7, size: 0x8, addend: 0x0, symName: _fluid_synth_update_pitch_wheel_sens_LOCAL, symObjAddr: 0x5978, symBinAddr: 0x31580, symSize: 0x78 }
  - { offset: 0xA86F0, size: 0x8, addend: 0x0, symName: _fluid_synth_update_pitch_wheel_sens_LOCAL, symObjAddr: 0x5978, symBinAddr: 0x31580, symSize: 0x78 }
  - { offset: 0xA8767, size: 0x8, addend: 0x0, symName: _fluid_synth_get_cc, symObjAddr: 0x3B0C, symBinAddr: 0x2F7CC, symSize: 0xB0 }
  - { offset: 0xA89D4, size: 0x8, addend: 0x0, symName: _fluid_synth_sysex, symObjAddr: 0x3BBC, symBinAddr: 0x2F87C, symSize: 0x10A0 }
  - { offset: 0xA8FF5, size: 0x8, addend: 0x0, symName: _fluid_synth_sysex_gs_dt1, symObjAddr: 0x4D7C, symBinAddr: 0x30A3C, symSize: 0x3D0 }
  - { offset: 0xA9187, size: 0x8, addend: 0x0, symName: _fluid_synth_system_reset_LOCAL, symObjAddr: 0x4C5C, symBinAddr: 0x3091C, symSize: 0x120 }
  - { offset: 0xA92D1, size: 0x8, addend: 0x0, symName: _fluid_synth_tuning_dump, symObjAddr: 0xB7DC, symBinAddr: 0x36FD4, symSize: 0xCC }
  - { offset: 0xA93B5, size: 0x8, addend: 0x0, symName: _fluid_synth_activate_octave_tuning, symObjAddr: 0xB278, symBinAddr: 0x36A70, symSize: 0xD0 }
  - { offset: 0xA94F1, size: 0x8, addend: 0x0, symName: _fluid_synth_tune_notes, symObjAddr: 0xB348, symBinAddr: 0x36B40, symSize: 0x11C }
  - { offset: 0xA96D5, size: 0x8, addend: 0x0, symName: _fluid_synth_set_basic_channel, symObjAddr: 0xC55C, symBinAddr: 0x37D54, symSize: 0x19C }
  - { offset: 0xA985B, size: 0x8, addend: 0x0, symName: _fluid_synth_program_change, symObjAddr: 0x5AF4, symBinAddr: 0x316FC, symSize: 0x220 }
  - { offset: 0xA9AD8, size: 0x8, addend: 0x0, symName: _fluid_synth_all_notes_off, symObjAddr: 0x514C, symBinAddr: 0x30E0C, symSize: 0x64 }
  - { offset: 0xA9B5E, size: 0x8, addend: 0x0, symName: _fluid_synth_all_sounds_off, symObjAddr: 0x5270, symBinAddr: 0x30F30, symSize: 0x64 }
  - { offset: 0xA9BE4, size: 0x8, addend: 0x0, symName: _fluid_synth_system_reset, symObjAddr: 0x5448, symBinAddr: 0x31050, symSize: 0x40 }
  - { offset: 0xA9C65, size: 0x8, addend: 0x0, symName: _fluid_synth_channel_pressure, symObjAddr: 0x5488, symBinAddr: 0x31090, symSize: 0x10C }
  - { offset: 0xA9DFA, size: 0x8, addend: 0x0, symName: _fluid_synth_key_pressure, symObjAddr: 0x5594, symBinAddr: 0x3119C, symSize: 0x130 }
  - { offset: 0xA9F31, size: 0x8, addend: 0x0, symName: _fluid_synth_pitch_bend, symObjAddr: 0x56C4, symBinAddr: 0x312CC, symSize: 0x10C }
  - { offset: 0xAA070, size: 0x8, addend: 0x0, symName: _fluid_synth_get_pitch_bend, symObjAddr: 0x57D0, symBinAddr: 0x313D8, symSize: 0x98 }
  - { offset: 0xAA12A, size: 0x8, addend: 0x0, symName: _fluid_synth_pitch_wheel_sens, symObjAddr: 0x5868, symBinAddr: 0x31470, symSize: 0x110 }
  - { offset: 0xAA269, size: 0x8, addend: 0x0, symName: _fluid_synth_get_pitch_wheel_sens, symObjAddr: 0x59F0, symBinAddr: 0x315F8, symSize: 0x9C }
  - { offset: 0xAA2FB, size: 0x8, addend: 0x0, symName: _fluid_synth_find_preset, symObjAddr: 0x5A8C, symBinAddr: 0x31694, symSize: 0x68 }
  - { offset: 0xAA436, size: 0x8, addend: 0x0, symName: _fluid_synth_bank_select, symObjAddr: 0x5D14, symBinAddr: 0x3191C, symSize: 0xA8 }
  - { offset: 0xAA4E0, size: 0x8, addend: 0x0, symName: _fluid_synth_sfont_select, symObjAddr: 0x5DBC, symBinAddr: 0x319C4, symSize: 0x9C }
  - { offset: 0xAA583, size: 0x8, addend: 0x0, symName: _fluid_synth_unset_program, symObjAddr: 0x5E58, symBinAddr: 0x31A60, symSize: 0x64 }
  - { offset: 0xAA60C, size: 0x8, addend: 0x0, symName: _fluid_synth_get_program, symObjAddr: 0x5EBC, symBinAddr: 0x31AC4, symSize: 0xD4 }
  - { offset: 0xAA744, size: 0x8, addend: 0x0, symName: _fluid_synth_program_select, symObjAddr: 0x5F90, symBinAddr: 0x31B98, symSize: 0x140 }
  - { offset: 0xAA8E9, size: 0x8, addend: 0x0, symName: _fluid_synth_pin_preset, symObjAddr: 0x60D0, symBinAddr: 0x31CD8, symSize: 0xE8 }
  - { offset: 0xAAA17, size: 0x8, addend: 0x0, symName: _fluid_synth_unpin_preset, symObjAddr: 0x61B8, symBinAddr: 0x31DC0, symSize: 0xE8 }
  - { offset: 0xAAB9B, size: 0x8, addend: 0x0, symName: _fluid_synth_program_select_by_sfont_name, symObjAddr: 0x62A0, symBinAddr: 0x31EA8, symSize: 0x144 }
  - { offset: 0xAAD74, size: 0x8, addend: 0x0, symName: _fluid_synth_set_sample_rate, symObjAddr: 0x63E4, symBinAddr: 0x31FEC, symSize: 0x10 }
  - { offset: 0xAADBE, size: 0x8, addend: 0x0, symName: _fluid_synth_set_gain, symObjAddr: 0x6518, symBinAddr: 0x31FFC, symSize: 0xA8 }
  - { offset: 0xAAE5E, size: 0x8, addend: 0x0, symName: _fluid_synth_get_gain, symObjAddr: 0x65C0, symBinAddr: 0x320A4, symSize: 0x54 }
  - { offset: 0xAAF1E, size: 0x8, addend: 0x0, symName: _fluid_synth_get_polyphony, symObjAddr: 0x6750, symBinAddr: 0x32234, symSize: 0x48 }
  - { offset: 0xAAF7A, size: 0x8, addend: 0x0, symName: _fluid_synth_get_active_voice_count, symObjAddr: 0x6798, symBinAddr: 0x3227C, symSize: 0x48 }
  - { offset: 0xAAFD7, size: 0x8, addend: 0x0, symName: _fluid_synth_get_internal_bufsize, symObjAddr: 0x67E0, symBinAddr: 0x322C4, symSize: 0x8 }
  - { offset: 0xAB002, size: 0x8, addend: 0x0, symName: _fluid_synth_program_reset, symObjAddr: 0x67E8, symBinAddr: 0x322CC, symSize: 0x88 }
  - { offset: 0xAB0F7, size: 0x8, addend: 0x0, symName: _fluid_synth_nwrite_float, symObjAddr: 0x6870, symBinAddr: 0x32354, symSize: 0x9D4 }
  - { offset: 0xAB45C, size: 0x8, addend: 0x0, symName: _fluid_synth_render_blocks, symObjAddr: 0x7244, symBinAddr: 0x32D28, symSize: 0x11C }
  - { offset: 0xAB6A7, size: 0x8, addend: 0x0, symName: _fluid_synth_process, symObjAddr: 0x7360, symBinAddr: 0x32E44, symSize: 0xC }
  - { offset: 0xAB754, size: 0x8, addend: 0x0, symName: _fluid_synth_process_LOCAL, symObjAddr: 0x736C, symBinAddr: 0x32E50, symSize: 0xC04 }
  - { offset: 0xABDD6, size: 0x8, addend: 0x0, symName: _fluid_synth_write_float, symObjAddr: 0x7F70, symBinAddr: 0x33A54, symSize: 0x6C }
  - { offset: 0xABF1B, size: 0x8, addend: 0x0, symName: _fluid_synth_write_float_channels_LOCAL, symObjAddr: 0x7FE8, symBinAddr: 0x33AC0, symSize: 0x39C }
  - { offset: 0xAC1E4, size: 0x8, addend: 0x0, symName: _fluid_synth_write_s16, symObjAddr: 0x83F0, symBinAddr: 0x33E5C, symSize: 0x64 }
  - { offset: 0xAC2DF, size: 0x8, addend: 0x0, symName: _fluid_synth_write_s16_channels, symObjAddr: 0x8454, symBinAddr: 0x33EC0, symSize: 0x480 }
  - { offset: 0xAC611, size: 0x8, addend: 0x0, symName: _fluid_synth_alloc_voice, symObjAddr: 0x89C0, symBinAddr: 0x34340, symSize: 0xA8 }
  - { offset: 0xAC6DE, size: 0x8, addend: 0x0, symName: _fluid_synth_alloc_voice_LOCAL, symObjAddr: 0x8A68, symBinAddr: 0x343E8, symSize: 0x3D0 }
  - { offset: 0xACBF1, size: 0x8, addend: 0x0, symName: _fluid_synth_start_voice, symObjAddr: 0x8E38, symBinAddr: 0x347B8, symSize: 0x130 }
  - { offset: 0xACE25, size: 0x8, addend: 0x0, symName: _fluid_synth_sfload, symObjAddr: 0x8F68, symBinAddr: 0x348E8, symSize: 0x12C }
  - { offset: 0xACFD7, size: 0x8, addend: 0x0, symName: _fluid_synth_sfunload, symObjAddr: 0x9094, symBinAddr: 0x34A14, symSize: 0x198 }
  - { offset: 0xAD1EA, size: 0x8, addend: 0x0, symName: _fluid_synth_update_presets, symObjAddr: 0x922C, symBinAddr: 0x34BAC, symSize: 0xF4 }
  - { offset: 0xAD360, size: 0x8, addend: 0x0, symName: _fluid_synth_sfunload_callback, symObjAddr: 0x93BC, symBinAddr: 0x34CA0, symSize: 0x44 }
  - { offset: 0xAD3C5, size: 0x8, addend: 0x0, symName: _fluid_synth_sfreload, symObjAddr: 0x9400, symBinAddr: 0x34CE4, symSize: 0x150 }
  - { offset: 0xAD5A6, size: 0x8, addend: 0x0, symName: _fluid_synth_add_sfont, symObjAddr: 0x9550, symBinAddr: 0x34E34, symSize: 0xCC }
  - { offset: 0xAD6B5, size: 0x8, addend: 0x0, symName: _fluid_synth_remove_sfont, symObjAddr: 0x961C, symBinAddr: 0x34F00, symSize: 0xEC }
  - { offset: 0xAD7EB, size: 0x8, addend: 0x0, symName: _fluid_synth_sfcount, symObjAddr: 0x9708, symBinAddr: 0x34FEC, symSize: 0x3C }
  - { offset: 0xAD865, size: 0x8, addend: 0x0, symName: _fluid_synth_get_sfont, symObjAddr: 0x9744, symBinAddr: 0x35028, symSize: 0x78 }
  - { offset: 0xAD91F, size: 0x8, addend: 0x0, symName: _fluid_synth_get_sfont_by_id, symObjAddr: 0x97BC, symBinAddr: 0x350A0, symSize: 0x7C }
  - { offset: 0xAD9AF, size: 0x8, addend: 0x0, symName: _fluid_synth_get_sfont_by_name, symObjAddr: 0x9838, symBinAddr: 0x3511C, symSize: 0x70 }
  - { offset: 0xADA53, size: 0x8, addend: 0x0, symName: _fluid_synth_get_channel_preset, symObjAddr: 0x98A8, symBinAddr: 0x3518C, symSize: 0x5C }
  - { offset: 0xADAC8, size: 0x8, addend: 0x0, symName: _fluid_synth_get_voicelist, symObjAddr: 0x9904, symBinAddr: 0x351E8, symSize: 0x12C }
  - { offset: 0xADB97, size: 0x8, addend: 0x0, symName: _fluid_synth_set_reverb_on, symObjAddr: 0x9A30, symBinAddr: 0x35314, symSize: 0x5C }
  - { offset: 0xADC19, size: 0x8, addend: 0x0, symName: _fluid_synth_set_reverb, symObjAddr: 0x9B78, symBinAddr: 0x35370, symSize: 0xC8 }
  - { offset: 0xADD15, size: 0x8, addend: 0x0, symName: _fluid_synth_set_reverb_roomsize, symObjAddr: 0x9C40, symBinAddr: 0x35438, symSize: 0xC }
  - { offset: 0xADD73, size: 0x8, addend: 0x0, symName: _fluid_synth_set_reverb_damp, symObjAddr: 0x9D6C, symBinAddr: 0x35564, symSize: 0xC }
  - { offset: 0xADDD1, size: 0x8, addend: 0x0, symName: _fluid_synth_set_reverb_width, symObjAddr: 0x9D78, symBinAddr: 0x35570, symSize: 0xC }
  - { offset: 0xADE2F, size: 0x8, addend: 0x0, symName: _fluid_synth_set_reverb_level, symObjAddr: 0x9D84, symBinAddr: 0x3557C, symSize: 0xC }
  - { offset: 0xADE8D, size: 0x8, addend: 0x0, symName: _fluid_synth_set_reverb_group_roomsize, symObjAddr: 0x9D90, symBinAddr: 0x35588, symSize: 0x8 }
  - { offset: 0xADF01, size: 0x8, addend: 0x0, symName: _fluid_synth_set_reverb_group_damp, symObjAddr: 0x9D98, symBinAddr: 0x35590, symSize: 0x8 }
  - { offset: 0xADF75, size: 0x8, addend: 0x0, symName: _fluid_synth_set_reverb_group_width, symObjAddr: 0x9DA0, symBinAddr: 0x35598, symSize: 0x8 }
  - { offset: 0xADFE9, size: 0x8, addend: 0x0, symName: _fluid_synth_set_reverb_group_level, symObjAddr: 0x9DA8, symBinAddr: 0x355A0, symSize: 0x8 }
  - { offset: 0xAE09A, size: 0x8, addend: 0x0, symName: _fluid_synth_get_reverb_roomsize, symObjAddr: 0x9DB0, symBinAddr: 0x355A8, symSize: 0x64 }
  - { offset: 0xAE11F, size: 0x8, addend: 0x0, symName: _fluid_synth_get_reverb_damp, symObjAddr: 0x9E14, symBinAddr: 0x3560C, symSize: 0x64 }
  - { offset: 0xAE1A4, size: 0x8, addend: 0x0, symName: _fluid_synth_get_reverb_level, symObjAddr: 0x9E78, symBinAddr: 0x35670, symSize: 0x64 }
  - { offset: 0xAE229, size: 0x8, addend: 0x0, symName: _fluid_synth_get_reverb_width, symObjAddr: 0x9EDC, symBinAddr: 0x356D4, symSize: 0x64 }
  - { offset: 0xAE2AE, size: 0x8, addend: 0x0, symName: _fluid_synth_get_reverb_group_roomsize, symObjAddr: 0x9F40, symBinAddr: 0x35738, symSize: 0x84 }
  - { offset: 0xAE386, size: 0x8, addend: 0x0, symName: _fluid_synth_get_reverb_group_damp, symObjAddr: 0x9FC4, symBinAddr: 0x357BC, symSize: 0x84 }
  - { offset: 0xAE443, size: 0x8, addend: 0x0, symName: _fluid_synth_get_reverb_group_width, symObjAddr: 0xA048, symBinAddr: 0x35840, symSize: 0x84 }
  - { offset: 0xAE500, size: 0x8, addend: 0x0, symName: _fluid_synth_get_reverb_group_level, symObjAddr: 0xA0CC, symBinAddr: 0x358C4, symSize: 0x84 }
  - { offset: 0xAE5BD, size: 0x8, addend: 0x0, symName: _fluid_synth_set_chorus_on, symObjAddr: 0xA150, symBinAddr: 0x35948, symSize: 0x5C }
  - { offset: 0xAE63F, size: 0x8, addend: 0x0, symName: _fluid_synth_set_chorus, symObjAddr: 0xA1AC, symBinAddr: 0x359A4, symSize: 0xEC }
  - { offset: 0xAE74D, size: 0x8, addend: 0x0, symName: _fluid_synth_set_chorus_nr, symObjAddr: 0xA298, symBinAddr: 0x35A90, symSize: 0x10 }
  - { offset: 0xAE7C2, size: 0x8, addend: 0x0, symName: _fluid_synth_set_chorus_level, symObjAddr: 0xA434, symBinAddr: 0x35C2C, symSize: 0xC }
  - { offset: 0xAE820, size: 0x8, addend: 0x0, symName: _fluid_synth_set_chorus_speed, symObjAddr: 0xA440, symBinAddr: 0x35C38, symSize: 0xC }
  - { offset: 0xAE87E, size: 0x8, addend: 0x0, symName: _fluid_synth_set_chorus_depth, symObjAddr: 0xA44C, symBinAddr: 0x35C44, symSize: 0xC }
  - { offset: 0xAE968, size: 0x8, addend: 0x0, symName: _fluid_synth_set_chorus_type, symObjAddr: 0xA458, symBinAddr: 0x35C50, symSize: 0x120 }
  - { offset: 0xAEAB6, size: 0x8, addend: 0x0, symName: _fluid_synth_set_chorus_group_nr, symObjAddr: 0xA578, symBinAddr: 0x35D70, symSize: 0xC }
  - { offset: 0xAEB21, size: 0x8, addend: 0x0, symName: _fluid_synth_set_chorus_group_level, symObjAddr: 0xA584, symBinAddr: 0x35D7C, symSize: 0x8 }
  - { offset: 0xAEB95, size: 0x8, addend: 0x0, symName: _fluid_synth_set_chorus_group_speed, symObjAddr: 0xA58C, symBinAddr: 0x35D84, symSize: 0x8 }
  - { offset: 0xAEC09, size: 0x8, addend: 0x0, symName: _fluid_synth_set_chorus_group_depth, symObjAddr: 0xA594, symBinAddr: 0x35D8C, symSize: 0x8 }
  - { offset: 0xAEC7C, size: 0x8, addend: 0x0, symName: _fluid_synth_set_chorus_group_type, symObjAddr: 0xA59C, symBinAddr: 0x35D94, symSize: 0x134 }
  - { offset: 0xAEE14, size: 0x8, addend: 0x0, symName: _fluid_synth_get_chorus_nr, symObjAddr: 0xA6D0, symBinAddr: 0x35EC8, symSize: 0x70 }
  - { offset: 0xAEEAD, size: 0x8, addend: 0x0, symName: _fluid_synth_get_chorus_level, symObjAddr: 0xA740, symBinAddr: 0x35F38, symSize: 0x64 }
  - { offset: 0xAEF32, size: 0x8, addend: 0x0, symName: _fluid_synth_get_chorus_speed, symObjAddr: 0xA7A4, symBinAddr: 0x35F9C, symSize: 0x64 }
  - { offset: 0xAEFB7, size: 0x8, addend: 0x0, symName: _fluid_synth_get_chorus_depth, symObjAddr: 0xA808, symBinAddr: 0x36000, symSize: 0x64 }
  - { offset: 0xAF03C, size: 0x8, addend: 0x0, symName: _fluid_synth_get_chorus_type, symObjAddr: 0xA86C, symBinAddr: 0x36064, symSize: 0x70 }
  - { offset: 0xAF0D5, size: 0x8, addend: 0x0, symName: _fluid_synth_get_chorus_group_nr, symObjAddr: 0xA8DC, symBinAddr: 0x360D4, symSize: 0xA8 }
  - { offset: 0xAF1BE, size: 0x8, addend: 0x0, symName: _fluid_synth_get_chorus_group_level, symObjAddr: 0xA984, symBinAddr: 0x3617C, symSize: 0x84 }
  - { offset: 0xAF27B, size: 0x8, addend: 0x0, symName: _fluid_synth_get_chorus_group_speed, symObjAddr: 0xAA08, symBinAddr: 0x36200, symSize: 0x84 }
  - { offset: 0xAF338, size: 0x8, addend: 0x0, symName: _fluid_synth_get_chorus_group_depth, symObjAddr: 0xAA8C, symBinAddr: 0x36284, symSize: 0x84 }
  - { offset: 0xAF3F5, size: 0x8, addend: 0x0, symName: _fluid_synth_get_chorus_group_type, symObjAddr: 0xAB10, symBinAddr: 0x36308, symSize: 0xA8 }
  - { offset: 0xAF4C3, size: 0x8, addend: 0x0, symName: _fluid_synth_set_interp_method, symObjAddr: 0xACC0, symBinAddr: 0x364B8, symSize: 0x130 }
  - { offset: 0xAF552, size: 0x8, addend: 0x0, symName: _fluid_synth_count_midi_channels, symObjAddr: 0xADF0, symBinAddr: 0x365E8, symSize: 0x48 }
  - { offset: 0xAF5AE, size: 0x8, addend: 0x0, symName: _fluid_synth_count_audio_channels, symObjAddr: 0xAE38, symBinAddr: 0x36630, symSize: 0x48 }
  - { offset: 0xAF60A, size: 0x8, addend: 0x0, symName: _fluid_synth_count_audio_groups, symObjAddr: 0xAE80, symBinAddr: 0x36678, symSize: 0x48 }
  - { offset: 0xAF666, size: 0x8, addend: 0x0, symName: _fluid_synth_count_effects_channels, symObjAddr: 0xAEC8, symBinAddr: 0x366C0, symSize: 0x48 }
  - { offset: 0xAF6C2, size: 0x8, addend: 0x0, symName: _fluid_synth_count_effects_groups, symObjAddr: 0xAF10, symBinAddr: 0x36708, symSize: 0x48 }
  - { offset: 0xAF71E, size: 0x8, addend: 0x0, symName: _fluid_synth_get_cpu_load, symObjAddr: 0xAF58, symBinAddr: 0x36750, symSize: 0x50 }
  - { offset: 0xAF7B1, size: 0x8, addend: 0x0, symName: _fluid_synth_activate_key_tuning, symObjAddr: 0xAFA8, symBinAddr: 0x367A0, symSize: 0xD4 }
  - { offset: 0xAF921, size: 0x8, addend: 0x0, symName: _fluid_synth_replace_tuning_LOCK, symObjAddr: 0xB07C, symBinAddr: 0x36874, symSize: 0x1FC }
  - { offset: 0xAFCB0, size: 0x8, addend: 0x0, symName: _fluid_synth_deactivate_tuning, symObjAddr: 0xB5CC, symBinAddr: 0x36DC4, symSize: 0xE0 }
  - { offset: 0xAFE03, size: 0x8, addend: 0x0, symName: _fluid_synth_tuning_iteration_start, symObjAddr: 0xB6AC, symBinAddr: 0x36EA4, symSize: 0x38 }
  - { offset: 0xAFE69, size: 0x8, addend: 0x0, symName: _fluid_synth_tuning_iteration_next, symObjAddr: 0xB6E4, symBinAddr: 0x36EDC, symSize: 0xF8 }
  - { offset: 0xAFF42, size: 0x8, addend: 0x0, symName: _fluid_synth_get_settings, symObjAddr: 0xB8A8, symBinAddr: 0x370A0, symSize: 0xC }
  - { offset: 0xAFFB2, size: 0x8, addend: 0x0, symName: _fluid_synth_set_gen, symObjAddr: 0xB8B4, symBinAddr: 0x370AC, symSize: 0xDC }
  - { offset: 0xB00C4, size: 0x8, addend: 0x0, symName: _fluid_synth_get_gen, symObjAddr: 0xBA30, symBinAddr: 0x37228, symSize: 0x78 }
  - { offset: 0xB0163, size: 0x8, addend: 0x0, symName: _fluid_synth_handle_midi_event, symObjAddr: 0xBAA8, symBinAddr: 0x372A0, symSize: 0x258 }
  - { offset: 0xB04B8, size: 0x8, addend: 0x0, symName: _fluid_synth_start, symObjAddr: 0xBD00, symBinAddr: 0x374F8, symSize: 0x108 }
  - { offset: 0xB0648, size: 0x8, addend: 0x0, symName: _fluid_synth_stop, symObjAddr: 0xBE08, symBinAddr: 0x37600, symSize: 0x98 }
  - { offset: 0xB0726, size: 0x8, addend: 0x0, symName: _fluid_synth_set_bank_offset, symObjAddr: 0xBEA0, symBinAddr: 0x37698, symSize: 0xA0 }
  - { offset: 0xB07D9, size: 0x8, addend: 0x0, symName: _fluid_synth_get_bank_offset, symObjAddr: 0xBF40, symBinAddr: 0x37738, symSize: 0xA4 }
  - { offset: 0xB088C, size: 0x8, addend: 0x0, symName: _fluid_synth_set_channel_type, symObjAddr: 0xBFE4, symBinAddr: 0x377DC, symSize: 0x74 }
  - { offset: 0xB08F2, size: 0x8, addend: 0x0, symName: _fluid_synth_get_ladspa_fx, symObjAddr: 0xC058, symBinAddr: 0x37850, symSize: 0xC }
  - { offset: 0xB091D, size: 0x8, addend: 0x0, symName: _fluid_synth_set_custom_filter, symObjAddr: 0xC064, symBinAddr: 0x3785C, symSize: 0x8C }
  - { offset: 0xB09CA, size: 0x8, addend: 0x0, symName: _fluid_synth_set_legato_mode, symObjAddr: 0xC0F0, symBinAddr: 0x378E8, symSize: 0x74 }
  - { offset: 0xB0A2F, size: 0x8, addend: 0x0, symName: _fluid_synth_get_legato_mode, symObjAddr: 0xC164, symBinAddr: 0x3795C, symSize: 0x74 }
  - { offset: 0xB0A94, size: 0x8, addend: 0x0, symName: _fluid_synth_set_portamento_mode, symObjAddr: 0xC1D8, symBinAddr: 0x379D0, symSize: 0x74 }
  - { offset: 0xB0AF9, size: 0x8, addend: 0x0, symName: _fluid_synth_get_portamento_mode, symObjAddr: 0xC24C, symBinAddr: 0x37A44, symSize: 0x74 }
  - { offset: 0xB0B5E, size: 0x8, addend: 0x0, symName: _fluid_synth_set_portamento_time_mode, symObjAddr: 0xC2C0, symBinAddr: 0x37AB8, symSize: 0x70 }
  - { offset: 0xB0BA5, size: 0x8, addend: 0x0, symName: _fluid_synth_get_portamento_time_mode, symObjAddr: 0xC330, symBinAddr: 0x37B28, symSize: 0x48 }
  - { offset: 0xB0C08, size: 0x8, addend: 0x0, symName: _fluid_synth_set_breath_mode, symObjAddr: 0xC378, symBinAddr: 0x37B70, symSize: 0x78 }
  - { offset: 0xB0C6D, size: 0x8, addend: 0x0, symName: _fluid_synth_get_breath_mode, symObjAddr: 0xC3F0, symBinAddr: 0x37BE8, symSize: 0x78 }
  - { offset: 0xB0CD2, size: 0x8, addend: 0x0, symName: _fluid_synth_reset_basic_channel, symObjAddr: 0xC468, symBinAddr: 0x37C60, symSize: 0xF4 }
  - { offset: 0xB0DFF, size: 0x8, addend: 0x0, symName: _fluid_synth_get_basic_channel, symObjAddr: 0xC6F8, symBinAddr: 0x37EF0, symSize: 0xF8 }
  - { offset: 0xB0FB7, size: 0x8, addend: 0x0, symName: _fluid_synth_noteon_mono_LOCAL, symObjAddr: 0x0, symBinAddr: 0x38428, symSize: 0x144 }
  - { offset: 0xB2659, size: 0x8, addend: 0x0, symName: _fluid_synth_noteon_mono_LOCAL, symObjAddr: 0x0, symBinAddr: 0x38428, symSize: 0x144 }
  - { offset: 0xB27C7, size: 0x8, addend: 0x0, symName: _fluid_synth_noteon_monopoly_legato, symObjAddr: 0x144, symBinAddr: 0x3856C, symSize: 0x258 }
  - { offset: 0xB2A39, size: 0x8, addend: 0x0, symName: _fluid_synth_noteon_mono_staccato, symObjAddr: 0x39C, symBinAddr: 0x387C4, symSize: 0xCC }
  - { offset: 0xB2AEF, size: 0x8, addend: 0x0, symName: _fluid_synth_noteoff_mono_LOCAL, symObjAddr: 0x468, symBinAddr: 0x38890, symSize: 0x10C }
  - { offset: 0xB2C51, size: 0x8, addend: 0x0, symName: _fluid_synth_noteoff_monopoly, symObjAddr: 0x574, symBinAddr: 0x3899C, symSize: 0x1C8 }
  - { offset: 0xB2E60, size: 0x8, addend: 0x0, symName: _new_fluid_tuning, symObjAddr: 0x0, symBinAddr: 0x38B64, symSize: 0x36C }
  - { offset: 0xB2F6D, size: 0x8, addend: 0x0, symName: _new_fluid_tuning, symObjAddr: 0x0, symBinAddr: 0x38B64, symSize: 0x36C }
  - { offset: 0xB315A, size: 0x8, addend: 0x0, symName: _fluid_tuning_duplicate, symObjAddr: 0x418, symBinAddr: 0x38ED0, symSize: 0x21C }
  - { offset: 0xB32CB, size: 0x8, addend: 0x0, symName: _fluid_tuning_ref, symObjAddr: 0x634, symBinAddr: 0x390EC, symSize: 0x44 }
  - { offset: 0xB3340, size: 0x8, addend: 0x0, symName: _fluid_tuning_unref, symObjAddr: 0x678, symBinAddr: 0x39130, symSize: 0x84 }
  - { offset: 0xB345C, size: 0x8, addend: 0x0, symName: _fluid_tuning_get_name, symObjAddr: 0x6FC, symBinAddr: 0x391B4, symSize: 0x8 }
  - { offset: 0xB3485, size: 0x8, addend: 0x0, symName: _fluid_tuning_set_octave, symObjAddr: 0x704, symBinAddr: 0x391BC, symSize: 0x4C }
  - { offset: 0xB34C4, size: 0x8, addend: 0x0, symName: _fluid_tuning_set_all, symObjAddr: 0x750, symBinAddr: 0x39208, symSize: 0x130 }
  - { offset: 0xB3503, size: 0x8, addend: 0x0, symName: _fluid_tuning_set_pitch, symObjAddr: 0x880, symBinAddr: 0x39338, symSize: 0x14 }
  - { offset: 0xB3571, size: 0x8, addend: 0x0, symName: _new_fluid_voice, symObjAddr: 0x0, symBinAddr: 0x3934C, symSize: 0x148 }
  - { offset: 0xB4C31, size: 0x8, addend: 0x0, symName: _new_fluid_voice, symObjAddr: 0x0, symBinAddr: 0x3934C, symSize: 0x148 }
  - { offset: 0xB4DD9, size: 0x8, addend: 0x0, symName: _fluid_voice_initialize_rvoice, symObjAddr: 0x1B4, symBinAddr: 0x39500, symSize: 0x174 }
  - { offset: 0xB5086, size: 0x8, addend: 0x0, symName: _delete_fluid_voice, symObjAddr: 0x148, symBinAddr: 0x39494, symSize: 0x6C }
  - { offset: 0xB526C, size: 0x8, addend: 0x0, symName: _fluid_voice_init, symObjAddr: 0x328, symBinAddr: 0x39674, symSize: 0x2E0 }
  - { offset: 0xB55EE, size: 0x8, addend: 0x0, symName: _fluid_voice_off, symObjAddr: 0x608, symBinAddr: 0x39954, symSize: 0x60 }
  - { offset: 0xB565C, size: 0x8, addend: 0x0, symName: _fluid_voice_is_playing, symObjAddr: 0x728, symBinAddr: 0x399B4, symSize: 0x14 }
  - { offset: 0xB5679, size: 0x8, addend: 0x0, symName: _fluid_voice_gen_set, symObjAddr: 0x73C, symBinAddr: 0x399C8, symSize: 0x88 }
  - { offset: 0xB56D4, size: 0x8, addend: 0x0, symName: _fluid_voice_gen_incr, symObjAddr: 0x7C4, symBinAddr: 0x39A50, symSize: 0x24 }
  - { offset: 0xB571A, size: 0x8, addend: 0x0, symName: _fluid_voice_gen_get, symObjAddr: 0x7E8, symBinAddr: 0x39A74, symSize: 0x14 }
  - { offset: 0xB5754, size: 0x8, addend: 0x0, symName: _fluid_voice_gen_value, symObjAddr: 0x7FC, symBinAddr: 0x39A88, symSize: 0x20 }
  - { offset: 0xB5AF0, size: 0x8, addend: 0x0, symName: _fluid_voice_start, symObjAddr: 0x81C, symBinAddr: 0x39AA8, symSize: 0xA5C }
  - { offset: 0xB6BAC, size: 0x8, addend: 0x0, symName: _fluid_voice_update_param, symObjAddr: 0x13A4, symBinAddr: 0x3A5CC, symSize: 0x1068 }
  - { offset: 0xB7CA6, size: 0x8, addend: 0x0, symName: _fluid_voice_update_portamento, symObjAddr: 0x2680, symBinAddr: 0x3B8A8, symSize: 0x140 }
  - { offset: 0xB7E38, size: 0x8, addend: 0x0, symName: _fluid_voice_calculate_gen_pitch, symObjAddr: 0x12DC, symBinAddr: 0x3A504, symSize: 0x9C }
  - { offset: 0xB7E75, size: 0x8, addend: 0x0, symName: _fluid_voice_calculate_gen_pitch, symObjAddr: 0x12DC, symBinAddr: 0x3A504, symSize: 0x9C }
  - { offset: 0xB7EE7, size: 0x8, addend: 0x0, symName: _fluid_voice_get_actual_key, symObjAddr: 0x1378, symBinAddr: 0x3A5A0, symSize: 0x2C }
  - { offset: 0xB7F10, size: 0x8, addend: 0x0, symName: _fluid_voice_get_actual_key, symObjAddr: 0x1378, symBinAddr: 0x3A5A0, symSize: 0x2C }
  - { offset: 0xB804B, size: 0x8, addend: 0x0, symName: _fluid_voice_modulate, symObjAddr: 0x240C, symBinAddr: 0x3B634, symSize: 0x254 }
  - { offset: 0xB8214, size: 0x8, addend: 0x0, symName: _fluid_voice_modulate_all, symObjAddr: 0x2660, symBinAddr: 0x3B888, symSize: 0x20 }
  - { offset: 0xB827F, size: 0x8, addend: 0x0, symName: _fluid_voice_update_multi_retrigger_attack, symObjAddr: 0x27C0, symBinAddr: 0x3B9E8, symSize: 0x1A8 }
  - { offset: 0xB84F2, size: 0x8, addend: 0x0, symName: _fluid_voice_release, symObjAddr: 0x2968, symBinAddr: 0x3BB90, symSize: 0x80 }
  - { offset: 0xB8574, size: 0x8, addend: 0x0, symName: _fluid_voice_noteoff, symObjAddr: 0x29E8, symBinAddr: 0x3BC10, symSize: 0xC8 }
  - { offset: 0xB863B, size: 0x8, addend: 0x0, symName: _fluid_voice_kill_excl, symObjAddr: 0x2AB0, symBinAddr: 0x3BCD8, symSize: 0x15C }
  - { offset: 0xB8820, size: 0x8, addend: 0x0, symName: _fluid_voice_overflow_rvoice_finished, symObjAddr: 0x2C0C, symBinAddr: 0x3BE34, symSize: 0x5C }
  - { offset: 0xB8877, size: 0x8, addend: 0x0, symName: _fluid_voice_stop, symObjAddr: 0x2C68, symBinAddr: 0x3BE90, symSize: 0x80 }
  - { offset: 0xB88CE, size: 0x8, addend: 0x0, symName: _fluid_voice_add_mod, symObjAddr: 0x2CE8, symBinAddr: 0x3BF10, symSize: 0x60 }
  - { offset: 0xB8953, size: 0x8, addend: 0x0, symName: _fluid_voice_add_mod_local, symObjAddr: 0x2D48, symBinAddr: 0x3BF70, symSize: 0x12C }
  - { offset: 0xB8A37, size: 0x8, addend: 0x0, symName: _fluid_voice_get_id, symObjAddr: 0x2E74, symBinAddr: 0x3C09C, symSize: 0x8 }
  - { offset: 0xB8A63, size: 0x8, addend: 0x0, symName: _fluid_voice_is_sustained, symObjAddr: 0x2E7C, symBinAddr: 0x3C0A4, symSize: 0x10 }
  - { offset: 0xB8A81, size: 0x8, addend: 0x0, symName: _fluid_voice_is_sostenuto, symObjAddr: 0x2E8C, symBinAddr: 0x3C0B4, symSize: 0x10 }
  - { offset: 0xB8AAD, size: 0x8, addend: 0x0, symName: _fluid_voice_is_on, symObjAddr: 0x2E9C, symBinAddr: 0x3C0C4, symSize: 0x28 }
  - { offset: 0xB8AD9, size: 0x8, addend: 0x0, symName: _fluid_voice_get_channel, symObjAddr: 0x2EC4, symBinAddr: 0x3C0EC, symSize: 0x8 }
  - { offset: 0xB8AF7, size: 0x8, addend: 0x0, symName: _fluid_voice_get_key, symObjAddr: 0x2ECC, symBinAddr: 0x3C0F4, symSize: 0x8 }
  - { offset: 0xB8B30, size: 0x8, addend: 0x0, symName: _fluid_voice_get_actual_velocity, symObjAddr: 0x2ED4, symBinAddr: 0x3C0FC, symSize: 0x2C }
  - { offset: 0xB8B6E, size: 0x8, addend: 0x0, symName: _fluid_voice_get_actual_velocity, symObjAddr: 0x2ED4, symBinAddr: 0x3C0FC, symSize: 0x2C }
  - { offset: 0xB8BAD, size: 0x8, addend: 0x0, symName: _fluid_voice_get_velocity, symObjAddr: 0x2F00, symBinAddr: 0x3C128, symSize: 0x8 }
  - { offset: 0xB8BCA, size: 0x8, addend: 0x0, symName: _fluid_voice_set_param, symObjAddr: 0x2F08, symBinAddr: 0x3C130, symSize: 0x2C }
  - { offset: 0xB8C2A, size: 0x8, addend: 0x0, symName: _fluid_voice_set_gain, symObjAddr: 0x2F34, symBinAddr: 0x3C15C, symSize: 0x1B8 }
  - { offset: 0xB8F39, size: 0x8, addend: 0x0, symName: _fluid_voice_optimize_sample, symObjAddr: 0x30EC, symBinAddr: 0x3C314, symSize: 0xF4 }
  - { offset: 0xB905D, size: 0x8, addend: 0x0, symName: _fluid_voice_get_overflow_prio, symObjAddr: 0x31E0, symBinAddr: 0x3C408, symSize: 0x100 }
  - { offset: 0xB911F, size: 0x8, addend: 0x0, symName: _fluid_voice_set_custom_filter, symObjAddr: 0x32E0, symBinAddr: 0x3C508, symSize: 0x6C }
  - { offset: 0xB91CF, size: 0x8, addend: 0x0, symName: _fluid_is_midifile, symObjAddr: 0x0, symBinAddr: 0x3C574, symSize: 0x80 }
  - { offset: 0xBA5F1, size: 0x8, addend: 0x0, symName: _fluid_is_midifile, symObjAddr: 0x0, symBinAddr: 0x3C574, symSize: 0x80 }
  - { offset: 0xBA8BD, size: 0x8, addend: 0x0, symName: _new_fluid_midi_event, symObjAddr: 0x80, symBinAddr: 0x3C5F4, symSize: 0x54 }
  - { offset: 0xBA929, size: 0x8, addend: 0x0, symName: _delete_fluid_midi_event, symObjAddr: 0xD4, symBinAddr: 0x3C648, symSize: 0x70 }
  - { offset: 0xBA977, size: 0x8, addend: 0x0, symName: _fluid_midi_event_get_type, symObjAddr: 0x144, symBinAddr: 0x3C6B8, symSize: 0x8 }
  - { offset: 0xBA9A3, size: 0x8, addend: 0x0, symName: _fluid_midi_event_set_type, symObjAddr: 0x14C, symBinAddr: 0x3C6C0, symSize: 0xC }
  - { offset: 0xBA9C8, size: 0x8, addend: 0x0, symName: _fluid_midi_event_get_channel, symObjAddr: 0x158, symBinAddr: 0x3C6CC, symSize: 0x8 }
  - { offset: 0xBA9F4, size: 0x8, addend: 0x0, symName: _fluid_midi_event_set_channel, symObjAddr: 0x160, symBinAddr: 0x3C6D4, symSize: 0xC }
  - { offset: 0xBAA19, size: 0x8, addend: 0x0, symName: _fluid_midi_event_get_key, symObjAddr: 0x16C, symBinAddr: 0x3C6E0, symSize: 0x8 }
  - { offset: 0xBAA45, size: 0x8, addend: 0x0, symName: _fluid_midi_event_set_key, symObjAddr: 0x174, symBinAddr: 0x3C6E8, symSize: 0xC }
  - { offset: 0xBAA80, size: 0x8, addend: 0x0, symName: _fluid_midi_event_get_velocity, symObjAddr: 0x180, symBinAddr: 0x3C6F4, symSize: 0x8 }
  - { offset: 0xBAAAC, size: 0x8, addend: 0x0, symName: _fluid_midi_event_set_velocity, symObjAddr: 0x188, symBinAddr: 0x3C6FC, symSize: 0xC }
  - { offset: 0xBAAE7, size: 0x8, addend: 0x0, symName: _fluid_midi_event_get_control, symObjAddr: 0x194, symBinAddr: 0x3C708, symSize: 0x8 }
  - { offset: 0xBAB13, size: 0x8, addend: 0x0, symName: _fluid_midi_event_set_control, symObjAddr: 0x19C, symBinAddr: 0x3C710, symSize: 0xC }
  - { offset: 0xBAB4E, size: 0x8, addend: 0x0, symName: _fluid_midi_event_get_value, symObjAddr: 0x1A8, symBinAddr: 0x3C71C, symSize: 0x8 }
  - { offset: 0xBAB7A, size: 0x8, addend: 0x0, symName: _fluid_midi_event_set_value, symObjAddr: 0x1B0, symBinAddr: 0x3C724, symSize: 0xC }
  - { offset: 0xBABB5, size: 0x8, addend: 0x0, symName: _fluid_midi_event_get_program, symObjAddr: 0x1BC, symBinAddr: 0x3C730, symSize: 0x8 }
  - { offset: 0xBABE1, size: 0x8, addend: 0x0, symName: _fluid_midi_event_set_program, symObjAddr: 0x1C4, symBinAddr: 0x3C738, symSize: 0xC }
  - { offset: 0xBAC1C, size: 0x8, addend: 0x0, symName: _fluid_midi_event_get_pitch, symObjAddr: 0x1D0, symBinAddr: 0x3C744, symSize: 0x8 }
  - { offset: 0xBAC48, size: 0x8, addend: 0x0, symName: _fluid_midi_event_set_pitch, symObjAddr: 0x1D8, symBinAddr: 0x3C74C, symSize: 0xC }
  - { offset: 0xBACCA, size: 0x8, addend: 0x0, symName: _fluid_midi_event_set_sysex, symObjAddr: 0x1E4, symBinAddr: 0x3C758, symSize: 0x18 }
  - { offset: 0xBAD37, size: 0x8, addend: 0x0, symName: _fluid_midi_event_set_text, symObjAddr: 0x1FC, symBinAddr: 0x3C770, symSize: 0x18 }
  - { offset: 0xBAE02, size: 0x8, addend: 0x0, symName: _fluid_midi_event_get_text, symObjAddr: 0x214, symBinAddr: 0x3C788, symSize: 0x44 }
  - { offset: 0xBAE79, size: 0x8, addend: 0x0, symName: _fluid_midi_event_set_lyrics, symObjAddr: 0x258, symBinAddr: 0x3C7CC, symSize: 0x18 }
  - { offset: 0xBAF0B, size: 0x8, addend: 0x0, symName: _fluid_midi_event_get_lyrics, symObjAddr: 0x270, symBinAddr: 0x3C7E4, symSize: 0x44 }
  - { offset: 0xBB042, size: 0x8, addend: 0x0, symName: _new_fluid_player, symObjAddr: 0x2B4, symBinAddr: 0x3C828, symSize: 0x208 }
  - { offset: 0xBB3BC, size: 0x8, addend: 0x0, symName: _delete_fluid_player, symObjAddr: 0x1DBC, symBinAddr: 0x3E330, symSize: 0xE4 }
  - { offset: 0xBB56C, size: 0x8, addend: 0x0, symName: _fluid_player_set_playback_callback, symObjAddr: 0x4BC, symBinAddr: 0x3CA30, symSize: 0x10 }
  - { offset: 0xBB598, size: 0x8, addend: 0x0, symName: _fluid_player_set_tick_callback, symObjAddr: 0x4CC, symBinAddr: 0x3CA40, symSize: 0x10 }
  - { offset: 0xBBDF5, size: 0x8, addend: 0x0, symName: _fluid_player_callback, symObjAddr: 0x4DC, symBinAddr: 0x3CA50, symSize: 0x18D4 }
  - { offset: 0xBD4FE, size: 0x8, addend: 0x0, symName: _fluid_player_update_tempo, symObjAddr: 0x256C, symBinAddr: 0x3EAE0, symSize: 0x114 }
  - { offset: 0xBD73E, size: 0x8, addend: 0x0, symName: _fluid_midi_file_read_varlen, symObjAddr: 0x2A50, symBinAddr: 0x3EFB8, symSize: 0x190 }
  - { offset: 0xBD7CF, size: 0x8, addend: 0x0, symName: _delete_fluid_track, symObjAddr: 0x29C4, symBinAddr: 0x3EF2C, symSize: 0x8C }
  - { offset: 0xBD8DC, size: 0x8, addend: 0x0, symName: _fluid_player_seek, symObjAddr: 0x22C4, symBinAddr: 0x3E838, symSize: 0x134 }
  - { offset: 0xBDAE7, size: 0x8, addend: 0x0, symName: _fluid_player_handle_reset_synth, symObjAddr: 0x1DB0, symBinAddr: 0x3E324, symSize: 0xC }
  - { offset: 0xBDB16, size: 0x8, addend: 0x0, symName: _fluid_player_reset, symObjAddr: 0x1F04, symBinAddr: 0x3E478, symSize: 0xE4 }
  - { offset: 0xBDBE3, size: 0x8, addend: 0x0, symName: _fluid_player_stop, symObjAddr: 0x1EA0, symBinAddr: 0x3E414, symSize: 0x64 }
  - { offset: 0xBDCBD, size: 0x8, addend: 0x0, symName: _fluid_player_settings, symObjAddr: 0x1FE8, symBinAddr: 0x3E55C, symSize: 0x84 }
  - { offset: 0xBDDCB, size: 0x8, addend: 0x0, symName: _fluid_player_add, symObjAddr: 0x206C, symBinAddr: 0x3E5E0, symSize: 0xAC }
  - { offset: 0xBDEBF, size: 0x8, addend: 0x0, symName: _fluid_player_add_mem, symObjAddr: 0x2118, symBinAddr: 0x3E68C, symSize: 0xBC }
  - { offset: 0xBDFA0, size: 0x8, addend: 0x0, symName: _fluid_player_play, symObjAddr: 0x21D4, symBinAddr: 0x3E748, symSize: 0xB4 }
  - { offset: 0xBE09B, size: 0x8, addend: 0x0, symName: _fluid_player_get_status, symObjAddr: 0x2288, symBinAddr: 0x3E7FC, symSize: 0x3C }
  - { offset: 0xBE17D, size: 0x8, addend: 0x0, symName: _fluid_player_get_current_tick, symObjAddr: 0x23F8, symBinAddr: 0x3E96C, symSize: 0x8 }
  - { offset: 0xBE19B, size: 0x8, addend: 0x0, symName: _fluid_player_get_total_ticks, symObjAddr: 0x2400, symBinAddr: 0x3E974, symSize: 0x68 }
  - { offset: 0xBE20B, size: 0x8, addend: 0x0, symName: _fluid_player_set_loop, symObjAddr: 0x2468, symBinAddr: 0x3E9DC, symSize: 0xC }
  - { offset: 0xBE270, size: 0x8, addend: 0x0, symName: _fluid_player_set_tempo, symObjAddr: 0x2474, symBinAddr: 0x3E9E8, symSize: 0xF8 }
  - { offset: 0xBE3AA, size: 0x8, addend: 0x0, symName: _fluid_player_set_midi_tempo, symObjAddr: 0x2680, symBinAddr: 0x3EBF4, symSize: 0x1C }
  - { offset: 0xBE40C, size: 0x8, addend: 0x0, symName: _fluid_player_set_bpm, symObjAddr: 0x269C, symBinAddr: 0x3EC10, symSize: 0x38 }
  - { offset: 0xBE47C, size: 0x8, addend: 0x0, symName: _fluid_player_join, symObjAddr: 0x26D4, symBinAddr: 0x3EC48, symSize: 0x58 }
  - { offset: 0xBE533, size: 0x8, addend: 0x0, symName: _fluid_player_get_bpm, symObjAddr: 0x272C, symBinAddr: 0x3ECA0, symSize: 0x28 }
  - { offset: 0xBE583, size: 0x8, addend: 0x0, symName: _fluid_player_get_midi_tempo, symObjAddr: 0x2754, symBinAddr: 0x3ECC8, symSize: 0xB8 }
  - { offset: 0xBE724, size: 0x8, addend: 0x0, symName: _fluid_player_get_division, symObjAddr: 0x280C, symBinAddr: 0x3ED80, symSize: 0x8 }
  - { offset: 0xBE74F, size: 0x8, addend: 0x0, symName: _new_fluid_midi_parser, symObjAddr: 0x2814, symBinAddr: 0x3ED88, symSize: 0x4C }
  - { offset: 0xBE7BD, size: 0x8, addend: 0x0, symName: _fluid_midi_parser_parse, symObjAddr: 0x286C, symBinAddr: 0x3EDD4, symSize: 0x158 }
  - { offset: 0xBE89F, size: 0x8, addend: 0x0, symName: _new_fluid_midi_router, symObjAddr: 0x0, symBinAddr: 0x3F148, symSize: 0x330 }
  - { offset: 0xBEB33, size: 0x8, addend: 0x0, symName: _new_fluid_midi_router, symObjAddr: 0x0, symBinAddr: 0x3F148, symSize: 0x330 }
  - { offset: 0xBED15, size: 0x8, addend: 0x0, symName: _delete_fluid_midi_router, symObjAddr: 0x3D8, symBinAddr: 0x3F520, symSize: 0xC0 }
  - { offset: 0xBEDCF, size: 0x8, addend: 0x0, symName: _new_fluid_midi_router_rule, symObjAddr: 0x330, symBinAddr: 0x3F478, symSize: 0xA8 }
  - { offset: 0xBEE44, size: 0x8, addend: 0x0, symName: _fluid_midi_router_set_default_rules, symObjAddr: 0x498, symBinAddr: 0x3F5E0, symSize: 0x734 }
  - { offset: 0xBF078, size: 0x8, addend: 0x0, symName: _delete_fluid_midi_router_rule, symObjAddr: 0xBCC, symBinAddr: 0x3FD14, symSize: 0xC }
  - { offset: 0xBF0A0, size: 0x8, addend: 0x0, symName: _fluid_midi_router_clear_rules, symObjAddr: 0xBD8, symBinAddr: 0x3FD20, symSize: 0x3C4 }
  - { offset: 0xBF183, size: 0x8, addend: 0x0, symName: _fluid_midi_router_add_rule, symObjAddr: 0xF9C, symBinAddr: 0x400E4, symSize: 0x80 }
  - { offset: 0xBF21D, size: 0x8, addend: 0x0, symName: _fluid_midi_router_rule_set_chan, symObjAddr: 0x101C, symBinAddr: 0x40164, symSize: 0x18 }
  - { offset: 0xBF281, size: 0x8, addend: 0x0, symName: _fluid_midi_router_rule_set_param1, symObjAddr: 0x1034, symBinAddr: 0x4017C, symSize: 0x18 }
  - { offset: 0xBF2E5, size: 0x8, addend: 0x0, symName: _fluid_midi_router_rule_set_param2, symObjAddr: 0x104C, symBinAddr: 0x40194, symSize: 0x18 }
  - { offset: 0xBF348, size: 0x8, addend: 0x0, symName: _fluid_midi_router_handle_midi_event, symObjAddr: 0x1064, symBinAddr: 0x401AC, symSize: 0x460 }
  - { offset: 0xBF54D, size: 0x8, addend: 0x0, symName: _fluid_midi_dump_prerouter, symObjAddr: 0x14C4, symBinAddr: 0x4060C, symSize: 0x1D0 }
  - { offset: 0xBF79D, size: 0x8, addend: 0x0, symName: _fluid_midi_dump_postrouter, symObjAddr: 0x1694, symBinAddr: 0x407DC, symSize: 0x1D0 }
  - { offset: 0xC081C, size: 0x8, addend: 0x0, symName: _fluid_sequencer_register_fluidsynth, symObjAddr: 0x68, symBinAddr: 0x409AC, symSize: 0x124 }
  - { offset: 0xC0AB0, size: 0x8, addend: 0x0, symName: _fluid_seqbind_timer_callback, symObjAddr: 0x18C, symBinAddr: 0x40AD0, symSize: 0x1C }
  - { offset: 0xC0B32, size: 0x8, addend: 0x0, symName: _fluid_seq_fluidsynth_callback, symObjAddr: 0x1A8, symBinAddr: 0x40AEC, symSize: 0x610 }
  - { offset: 0xC14E2, size: 0x8, addend: 0x0, symName: _fluid_sequencer_add_midi_event_to_buffer, symObjAddr: 0x7B8, symBinAddr: 0x410FC, symSize: 0xDC }
  - { offset: 0xC175B, size: 0x8, addend: 0x0, symName: _fluid_note_compute_id, symObjAddr: 0x0, symBinAddr: 0x411D8, symSize: 0x8 }
  - { offset: 0xC5644, size: 0x8, addend: 0x0, symName: _fluid_note_compute_id, symObjAddr: 0x0, symBinAddr: 0x411D8, symSize: 0x8 }
  - { offset: 0xC57D2, size: 0x8, addend: 0x0, symName: _new_fluid_note_container, symObjAddr: 0x8, symBinAddr: 0x411E0, symSize: 0x3C }
  - { offset: 0xC5963, size: 0x8, addend: 0x0, symName: _delete_fluid_note_container, symObjAddr: 0x44, symBinAddr: 0x4121C, symSize: 0x30 }
  - { offset: 0xC5DC2, size: 0x8, addend: 0x0, symName: _fluid_note_container_insert, symObjAddr: 0x74, symBinAddr: 0x4124C, symSize: 0xE0 }
  - { offset: 0xC623E, size: 0x8, addend: 0x0, symName: _fluid_note_container_remove, symObjAddr: 0x154, symBinAddr: 0x4132C, symSize: 0xC0 }
  - { offset: 0xC656C, size: 0x8, addend: 0x0, symName: _fluid_note_container_clear, symObjAddr: 0x214, symBinAddr: 0x413EC, symSize: 0x34 }
  - { offset: 0xC8588, size: 0x8, addend: 0x0, symName: _new_fluid_sequencer, symObjAddr: 0x0, symBinAddr: 0x41420, symSize: 0x8 }
  - { offset: 0xC87E8, size: 0x8, addend: 0x0, symName: _new_fluid_sequencer, symObjAddr: 0x0, symBinAddr: 0x41420, symSize: 0x8 }
  - { offset: 0xC8815, size: 0x8, addend: 0x0, symName: _new_fluid_sequencer2, symObjAddr: 0x8, symBinAddr: 0x41428, symSize: 0xF8 }
  - { offset: 0xC89DA, size: 0x8, addend: 0x0, symName: _fluid_sequencer_unregister_client, symObjAddr: 0x158, symBinAddr: 0x41578, symSize: 0x138 }
  - { offset: 0xC8BDC, size: 0x8, addend: 0x0, symName: _delete_fluid_sequencer, symObjAddr: 0x100, symBinAddr: 0x41520, symSize: 0x58 }
  - { offset: 0xC8D6B, size: 0x8, addend: 0x0, symName: _fluid_sequencer_get_use_system_timer, symObjAddr: 0x290, symBinAddr: 0x416B0, symSize: 0xC }
  - { offset: 0xC8D94, size: 0x8, addend: 0x0, symName: _fluid_sequencer_register_client, symObjAddr: 0x29C, symBinAddr: 0x416BC, symSize: 0xE4 }
  - { offset: 0xC8EA6, size: 0x8, addend: 0x0, symName: _fluid_sequencer_get_tick, symObjAddr: 0x380, symBinAddr: 0x417A0, symSize: 0x80 }
  - { offset: 0xC8F62, size: 0x8, addend: 0x0, symName: _fluid_sequencer_count_clients, symObjAddr: 0x400, symBinAddr: 0x41820, symSize: 0x18 }
  - { offset: 0xC8FAB, size: 0x8, addend: 0x0, symName: _fluid_sequencer_get_client_id, symObjAddr: 0x418, symBinAddr: 0x41838, symSize: 0x3C }
  - { offset: 0xC9039, size: 0x8, addend: 0x0, symName: _fluid_sequencer_get_client_name, symObjAddr: 0x454, symBinAddr: 0x41874, symSize: 0x38 }
  - { offset: 0xC909A, size: 0x8, addend: 0x0, symName: _fluid_sequencer_client_is_dest, symObjAddr: 0x48C, symBinAddr: 0x418AC, symSize: 0x40 }
  - { offset: 0xC90FA, size: 0x8, addend: 0x0, symName: _fluid_sequencer_send_now, symObjAddr: 0x4CC, symBinAddr: 0x418EC, symSize: 0x12C }
  - { offset: 0xC9271, size: 0x8, addend: 0x0, symName: _fluid_sequencer_send_at, symObjAddr: 0x5F8, symBinAddr: 0x41A18, symSize: 0xE8 }
  - { offset: 0xC9417, size: 0x8, addend: 0x0, symName: _fluid_sequencer_remove_events, symObjAddr: 0x6E0, symBinAddr: 0x41B00, symSize: 0x5C }
  - { offset: 0xC94C4, size: 0x8, addend: 0x0, symName: _fluid_sequencer_set_time_scale, symObjAddr: 0x73C, symBinAddr: 0x41B5C, symSize: 0xB4 }
  - { offset: 0xC9572, size: 0x8, addend: 0x0, symName: _fluid_sequencer_get_time_scale, symObjAddr: 0x7F0, symBinAddr: 0x41C10, symSize: 0x14 }
  - { offset: 0xC95BC, size: 0x8, addend: 0x0, symName: _fluid_sequencer_process, symObjAddr: 0x804, symBinAddr: 0x41C24, symSize: 0xA4 }
  - { offset: 0xC96CE, size: 0x8, addend: 0x0, symName: _fluid_sequencer_invalidate_note, symObjAddr: 0x8A8, symBinAddr: 0x41CC8, symSize: 0x8 }
  - { offset: 0xCC0BA, size: 0x8, addend: 0x0, symName: __ZNSt3__111__sift_downB8ne190102INS_17_ClassicAlgPolicyERPFbRK14_fluid_event_tS4_ENS_16__deque_iteratorIS2_PS2_RS2_PS9_lLl73EEEEEvT1_OT0_NS_15iterator_traitsISD_E15difference_typeESD_, symObjAddr: 0x3070, symBinAddr: 0x44BFC, symSize: 0x47C }
  - { offset: 0xCC4E9, size: 0x8, addend: 0x0, symName: __ZNSt3__19__sift_upB8ne190102INS_17_ClassicAlgPolicyERPFbRK14_fluid_event_tS4_ENS_16__deque_iteratorIS2_PS2_RS2_PS9_lLl73EEEEEvT1_SD_OT0_NS_15iterator_traitsISD_E15difference_typeE, symObjAddr: 0x12EC, symBinAddr: 0x42EB0, symSize: 0x274 }
  - { offset: 0xCCC39, size: 0x8, addend: 0x0, symName: __ZNSt3__118__for_each_segmentB8ne190102INS_16__deque_iteratorI14_fluid_event_tPS2_RS2_PS3_lLl73EEENS_11__move_implINS_17_ClassicAlgPolicyEE12_MoveSegmentIS6_S6_EEEEvT_SC_T0_, symObjAddr: 0x2D5C, symBinAddr: 0x448E8, symSize: 0x314 }
  - { offset: 0xCD5FD, size: 0x8, addend: 0x0, symName: __ZNSt3__18pop_heapB8ne190102INS_16__deque_iteratorI14_fluid_event_tPS2_RS2_PS3_lLl73EEEPFbRKS2_S8_EEEvT_SB_T0_, symObjAddr: 0xF74, symBinAddr: 0x42B38, symSize: 0x378 }
  - { offset: 0xCFB2D, size: 0x8, addend: 0x0, symName: __ZL13event_compareRK14_fluid_event_tS1_, symObjAddr: 0x10C, symBinAddr: 0x41CD0, symSize: 0x114 }
  - { offset: 0xCFD49, size: 0x8, addend: 0x0, symName: _new_fluid_seq_queue, symObjAddr: 0x220, symBinAddr: 0x41DE4, symSize: 0x10C }
  - { offset: 0xCFFA7, size: 0x8, addend: 0x0, symName: __ZNSt3__15dequeI14_fluid_event_tNS_9allocatorIS1_EEE8__appendEm, symObjAddr: 0x1570, symBinAddr: 0x43124, symSize: 0x21C }
  - { offset: 0xD01FC, size: 0x8, addend: 0x0, symName: __ZNSt3__114__split_bufferIP14_fluid_event_tNS_9allocatorIS2_EEED1Ev, symObjAddr: 0x178C, symBinAddr: 0x43340, symSize: 0x50 }
  - { offset: 0xD0222, size: 0x8, addend: 0x0, symName: __ZNSt3__114__split_bufferIP14_fluid_event_tNS_9allocatorIS2_EEED1Ev, symObjAddr: 0x178C, symBinAddr: 0x43340, symSize: 0x50 }
  - { offset: 0xD0242, size: 0x8, addend: 0x0, symName: __ZNSt3__114__split_bufferIP14_fluid_event_tNS_9allocatorIS2_EEED1Ev, symObjAddr: 0x178C, symBinAddr: 0x43340, symSize: 0x50 }
  - { offset: 0xD0388, size: 0x8, addend: 0x0, symName: _delete_fluid_seq_queue, symObjAddr: 0x32C, symBinAddr: 0x41EF0, symSize: 0x1C }
  - { offset: 0xD03D8, size: 0x8, addend: 0x0, symName: __ZNSt3__15dequeI14_fluid_event_tNS_9allocatorIS1_EEED2B8ne190102Ev, symObjAddr: 0x2444, symBinAddr: 0x43FD0, symSize: 0xC8 }
  - { offset: 0xD0985, size: 0x8, addend: 0x0, symName: _fluid_seq_queue_push, symObjAddr: 0x348, symBinAddr: 0x41F0C, symSize: 0x19C }
  - { offset: 0xD0BCA, size: 0x8, addend: 0x0, symName: __ZNSt3__15dequeI14_fluid_event_tNS_9allocatorIS1_EEE19__add_back_capacityEv, symObjAddr: 0x250C, symBinAddr: 0x44098, symSize: 0x57C }
  - { offset: 0xD1F92, size: 0x8, addend: 0x0, symName: _fluid_seq_queue_remove, symObjAddr: 0x4E4, symBinAddr: 0x420A8, symSize: 0x3CC }
  - { offset: 0xD23D1, size: 0x8, addend: 0x0, symName: __ZNSt3__15dequeI14_fluid_event_tNS_9allocatorIS1_EEE5eraseENS_16__deque_iteratorIS1_PKS1_RS6_PKS7_lLl73EEE, symObjAddr: 0x8B0, symBinAddr: 0x42474, symSize: 0x474 }
  - { offset: 0xD2CB7, size: 0x8, addend: 0x0, symName: __ZNKSt3__120__move_backward_implINS_17_ClassicAlgPolicyEEclB8ne190102INS_16__deque_iteratorI14_fluid_event_tPS5_RS5_PS6_lLl73EEES9_Li0EEENS_4pairIT_T0_EESB_SB_SC_, symObjAddr: 0x2A88, symBinAddr: 0x44614, symSize: 0x2D4 }
  - { offset: 0xD3670, size: 0x8, addend: 0x0, symName: _fluid_seq_queue_invalidate_note_private, symObjAddr: 0xD24, symBinAddr: 0x428E8, symSize: 0xE0 }
  - { offset: 0xD36E2, size: 0x8, addend: 0x0, symName: _fluid_seq_queue_invalidate_note_private, symObjAddr: 0xD24, symBinAddr: 0x428E8, symSize: 0xE0 }
  - { offset: 0xD3709, size: 0x8, addend: 0x0, symName: _fluid_seq_queue_invalidate_note_private, symObjAddr: 0xD24, symBinAddr: 0x428E8, symSize: 0xE0 }
  - { offset: 0xD383C, size: 0x8, addend: 0x0, symName: _fluid_seq_queue_process, symObjAddr: 0xE04, symBinAddr: 0x429C8, symSize: 0x170 }
  - { offset: 0xD3D86, size: 0x8, addend: 0x0, symName: __ZNSt3__15dequeI14_fluid_event_tNS_9allocatorIS1_EEE19__add_back_capacityEm, symObjAddr: 0x17DC, symBinAddr: 0x43390, symSize: 0x92C }
  - { offset: 0xD6249, size: 0x8, addend: 0x0, symName: __ZNSt3__114__split_bufferIP14_fluid_event_tNS_9allocatorIS2_EEE9push_backEOS2_, symObjAddr: 0x2108, symBinAddr: 0x43CBC, symSize: 0x184 }
  - { offset: 0xD66FD, size: 0x8, addend: 0x0, symName: __ZNSt3__114__split_bufferIP14_fluid_event_tNS_9allocatorIS2_EEE10push_frontEOS2_, symObjAddr: 0x228C, symBinAddr: 0x43E40, symSize: 0x190 }
  - { offset: 0xD6708, size: 0x8, addend: 0x0, symName: __ZNSt3__114__split_bufferIP14_fluid_event_tNS_9allocatorIS2_EEE10push_frontEOS2_, symObjAddr: 0x228C, symBinAddr: 0x43E40, symSize: 0x190 }
  - { offset: 0xD8F07, size: 0x8, addend: 0x0, symName: _fluid_audio_driver_settings, symObjAddr: 0x0, symBinAddr: 0x45078, symSize: 0x124 }
  - { offset: 0xD8F2E, size: 0x8, addend: 0x0, symName: _fluid_audio_drivers, symObjAddr: 0x740, symBinAddr: 0x68B00, symSize: 0x0 }
  - { offset: 0xD9096, size: 0x8, addend: 0x0, symName: _fluid_adriver_disable_mask.0, symObjAddr: 0x272D, symBinAddr: 0xCA198, symSize: 0x0 }
  - { offset: 0xD90C4, size: 0x8, addend: 0x0, symName: _fluid_audio_driver_settings, symObjAddr: 0x0, symBinAddr: 0x45078, symSize: 0x124 }
  - { offset: 0xD92A8, size: 0x8, addend: 0x0, symName: _new_fluid_audio_driver, symObjAddr: 0x124, symBinAddr: 0x4519C, symSize: 0xCC }
  - { offset: 0xD93B7, size: 0x8, addend: 0x0, symName: _find_fluid_audio_driver, symObjAddr: 0x1F0, symBinAddr: 0x45268, symSize: 0x110 }
  - { offset: 0xD9587, size: 0x8, addend: 0x0, symName: _new_fluid_audio_driver2, symObjAddr: 0x300, symBinAddr: 0x45378, symSize: 0x90 }
  - { offset: 0xD963F, size: 0x8, addend: 0x0, symName: _delete_fluid_audio_driver, symObjAddr: 0x390, symBinAddr: 0x45408, symSize: 0x14 }
  - { offset: 0xD9671, size: 0x8, addend: 0x0, symName: _fluid_audio_driver_register, symObjAddr: 0x3A4, symBinAddr: 0x4541C, symSize: 0x88 }
  - { offset: 0xD972C, size: 0x8, addend: 0x0, symName: _fluid_midi_driver_settings, symObjAddr: 0x0, symBinAddr: 0x454A4, symSize: 0xAC }
  - { offset: 0xD9753, size: 0x8, addend: 0x0, symName: _fluid_midi_drivers, symObjAddr: 0x2B0, symBinAddr: 0x68B50, symSize: 0x0 }
  - { offset: 0xD9888, size: 0x8, addend: 0x0, symName: _fluid_midi_driver_settings, symObjAddr: 0x0, symBinAddr: 0x454A4, symSize: 0xAC }
  - { offset: 0xD99E6, size: 0x8, addend: 0x0, symName: _new_fluid_midi_driver, symObjAddr: 0xAC, symBinAddr: 0x45550, symSize: 0xF8 }
  - { offset: 0xD9B36, size: 0x8, addend: 0x0, symName: _delete_fluid_midi_driver, symObjAddr: 0x1A4, symBinAddr: 0x45648, symSize: 0x14 }
  - { offset: 0xD9B8B, size: 0x8, addend: 0x0, symName: _fluid_shell_settings, symObjAddr: 0x0, symBinAddr: 0x4565C, symSize: 0x50 }
  - { offset: 0xD9BBE, size: 0x8, addend: 0x0, symName: _fluid_handle_resetbasicchannels, symObjAddr: 0x3638, symBinAddr: 0x48AF0, symSize: 0x1F0 }
  - { offset: 0xD9E14, size: 0x8, addend: 0x0, symName: _fluid_handle_setbasicchannels, symObjAddr: 0x3828, symBinAddr: 0x48CE0, symSize: 0x33C }
  - { offset: 0xDA12C, size: 0x8, addend: 0x0, symName: _fluid_handle_channelsmode, symObjAddr: 0x3B64, symBinAddr: 0x4901C, symSize: 0x39C }
  - { offset: 0xDA154, size: 0x8, addend: 0x0, symName: _fluid_handle_channelsmode.header, symObjAddr: 0x7F12, symBinAddr: 0x5A712, symSize: 0x0 }
  - { offset: 0xDA178, size: 0x8, addend: 0x0, symName: _fluid_handle_channelsmode.blank, symObjAddr: 0x7F5A, symBinAddr: 0x5A75A, symSize: 0x0 }
  - { offset: 0xDA430, size: 0x8, addend: 0x0, symName: _fluid_handle_legatomode, symObjAddr: 0x3F00, symBinAddr: 0x493B8, symSize: 0x22C }
  - { offset: 0xDA465, size: 0x8, addend: 0x0, symName: _fluid_handle_legatomode.name_legato_mode, symObjAddr: 0x7E88, symBinAddr: 0x692F0, symSize: 0x0 }
  - { offset: 0xDA6D0, size: 0x8, addend: 0x0, symName: _fluid_handle_setlegatomode, symObjAddr: 0x412C, symBinAddr: 0x495E4, symSize: 0xFC }
  - { offset: 0xDA879, size: 0x8, addend: 0x0, symName: _fluid_handle_portamentomode, symObjAddr: 0x433C, symBinAddr: 0x497F4, symSize: 0x22C }
  - { offset: 0xDA8AE, size: 0x8, addend: 0x0, symName: _fluid_handle_portamentomode.name_portamento_mode, symObjAddr: 0x7E98, symBinAddr: 0x69300, symSize: 0x0 }
  - { offset: 0xDAB0F, size: 0x8, addend: 0x0, symName: _fluid_handle_setportamentomode, symObjAddr: 0x4568, symBinAddr: 0x49A20, symSize: 0xFC }
  - { offset: 0xDACB8, size: 0x8, addend: 0x0, symName: _fluid_handle_breathmode, symObjAddr: 0x4664, symBinAddr: 0x49B1C, symSize: 0x26C }
  - { offset: 0xDACFA, size: 0x8, addend: 0x0, symName: _fluid_handle_breathmode.on_msg, symObjAddr: 0x7F89, symBinAddr: 0x5A789, symSize: 0x0 }
  - { offset: 0xDAD11, size: 0x8, addend: 0x0, symName: _fluid_handle_breathmode.off_msg, symObjAddr: 0x7F8C, symBinAddr: 0x5A78C, symSize: 0x0 }
  - { offset: 0xDAF4A, size: 0x8, addend: 0x0, symName: _fluid_handle_setbreathmode, symObjAddr: 0x48D0, symBinAddr: 0x49D88, symSize: 0x12C }
  - { offset: 0xDAF7F, size: 0x8, addend: 0x0, symName: _fluid_handle_setbreathmode.too_few_arg_breath_msg, symObjAddr: 0x7F90, symBinAddr: 0x5A790, symSize: 0x0 }
  - { offset: 0xDB157, size: 0x8, addend: 0x0, symName: _fluid_handle_player_cde, symObjAddr: 0x4B10, symBinAddr: 0x49EB4, symSize: 0x1E8 }
  - { offset: 0xDB178, size: 0x8, addend: 0x0, symName: _fluid_handle_player_cde.name_cde, symObjAddr: 0x7EB0, symBinAddr: 0x69318, symSize: 0x0 }
  - { offset: 0xDB357, size: 0x8, addend: 0x0, symName: _fluid_handle_player_tempo_cde, symObjAddr: 0x4E74, symBinAddr: 0x4A218, symSize: 0x134 }
  - { offset: 0xDB37F, size: 0x8, addend: 0x0, symName: _fluid_handle_player_tempo_cde.name_cde, symObjAddr: 0x7EC0, symBinAddr: 0x69328, symSize: 0x0 }
  - { offset: 0xDB396, size: 0x8, addend: 0x0, symName: _fluid_handle_player_tempo_cde.argument, symObjAddr: 0x7ED0, symBinAddr: 0x69338, symSize: 0x0 }
  - { offset: 0xDB4E8, size: 0x8, addend: 0x0, symName: _fluid_commands, symObjAddr: 0x7728, symBinAddr: 0x68B90, symSize: 0x0 }
  - { offset: 0xDB592, size: 0x8, addend: 0x0, symName: _invalid_arg_msg, symObjAddr: 0x7F00, symBinAddr: 0x5A700, symSize: 0x0 }
  - { offset: 0xDB5B5, size: 0x8, addend: 0x0, symName: _mode_name, symObjAddr: 0x7E68, symBinAddr: 0x692D0, symSize: 0x0 }
  - { offset: 0xDB5CC, size: 0x8, addend: 0x0, symName: _too_few_arg_chan_mode_msg, symObjAddr: 0x7F5D, symBinAddr: 0x5A75D, symSize: 0x0 }
  - { offset: 0xDD117, size: 0x8, addend: 0x0, symName: _fluid_shell_settings, symObjAddr: 0x0, symBinAddr: 0x4565C, symSize: 0x50 }
  - { offset: 0xDD21C, size: 0x8, addend: 0x0, symName: _fluid_command, symObjAddr: 0x50, symBinAddr: 0x456AC, symSize: 0xF4 }
  - { offset: 0xDD42A, size: 0x8, addend: 0x0, symName: _new_fluid_shell, symObjAddr: 0x1EC, symBinAddr: 0x457A0, symSize: 0xF0 }
  - { offset: 0xDD5C5, size: 0x8, addend: 0x0, symName: _fluid_shell_run, symObjAddr: 0x2DC, symBinAddr: 0x45890, symSize: 0x118 }
  - { offset: 0xDD6FA, size: 0x8, addend: 0x0, symName: _delete_fluid_shell, symObjAddr: 0x3F4, symBinAddr: 0x459A8, symSize: 0x38 }
  - { offset: 0xDD73F, size: 0x8, addend: 0x0, symName: _fluid_usershell, symObjAddr: 0x42C, symBinAddr: 0x459E0, symSize: 0x4C }
  - { offset: 0xDD802, size: 0x8, addend: 0x0, symName: _fluid_source, symObjAddr: 0x478, symBinAddr: 0x45A2C, symSize: 0x60 }
  - { offset: 0xDD8FE, size: 0x8, addend: 0x0, symName: _fluid_get_userconf, symObjAddr: 0x4D8, symBinAddr: 0x45A8C, symSize: 0x74 }
  - { offset: 0xDD973, size: 0x8, addend: 0x0, symName: _fluid_get_sysconf, symObjAddr: 0x54C, symBinAddr: 0x45B00, symSize: 0x30 }
  - { offset: 0xDD9C9, size: 0x8, addend: 0x0, symName: _fluid_handle_noteon, symObjAddr: 0x57C, symBinAddr: 0x45B30, symSize: 0x16C }
  - { offset: 0xDDB11, size: 0x8, addend: 0x0, symName: _fluid_handle_noteoff, symObjAddr: 0x73C, symBinAddr: 0x45C9C, symSize: 0x110 }
  - { offset: 0xDDC10, size: 0x8, addend: 0x0, symName: _fluid_handle_pitch_bend, symObjAddr: 0x84C, symBinAddr: 0x45DAC, symSize: 0x110 }
  - { offset: 0xDDD0F, size: 0x8, addend: 0x0, symName: _fluid_handle_pitch_bend_range, symObjAddr: 0x95C, symBinAddr: 0x45EBC, symSize: 0x11C }
  - { offset: 0xDDE06, size: 0x8, addend: 0x0, symName: _fluid_handle_cc, symObjAddr: 0xA78, symBinAddr: 0x45FD8, symSize: 0x16C }
  - { offset: 0xDDF3D, size: 0x8, addend: 0x0, symName: _fluid_handle_prog, symObjAddr: 0xBE4, symBinAddr: 0x46144, symSize: 0x110 }
  - { offset: 0xDE03C, size: 0x8, addend: 0x0, symName: _fluid_handle_select, symObjAddr: 0xCF4, symBinAddr: 0x46254, symSize: 0x208 }
  - { offset: 0xDE22D, size: 0x8, addend: 0x0, symName: _fluid_handle_inst, symObjAddr: 0xEFC, symBinAddr: 0x4645C, symSize: 0x148 }
  - { offset: 0xDE44D, size: 0x8, addend: 0x0, symName: _fluid_handle_channels, symObjAddr: 0x1044, symBinAddr: 0x465A4, symSize: 0x198 }
  - { offset: 0xDE686, size: 0x8, addend: 0x0, symName: _fluid_handle_load, symObjAddr: 0x11DC, symBinAddr: 0x4673C, symSize: 0x1D8 }
  - { offset: 0xDE849, size: 0x8, addend: 0x0, symName: _fluid_handle_unload, symObjAddr: 0x145C, symBinAddr: 0x46914, symSize: 0xE8 }
  - { offset: 0xDE94D, size: 0x8, addend: 0x0, symName: _fluid_handle_reload, symObjAddr: 0x1544, symBinAddr: 0x469FC, symSize: 0xF0 }
  - { offset: 0xDEA4A, size: 0x8, addend: 0x0, symName: _fluid_handle_fonts, symObjAddr: 0x1634, symBinAddr: 0x46AEC, symSize: 0xF4 }
  - { offset: 0xDEBB3, size: 0x8, addend: 0x0, symName: _fluid_handle_echo, symObjAddr: 0x1728, symBinAddr: 0x46BE0, symSize: 0x58 }
  - { offset: 0xDEC24, size: 0x8, addend: 0x0, symName: _fluid_handle_sleep, symObjAddr: 0x1780, symBinAddr: 0x46C38, symSize: 0xA4 }
  - { offset: 0xDED27, size: 0x8, addend: 0x0, symName: _fluid_handle_source, symObjAddr: 0x1824, symBinAddr: 0x46CDC, symSize: 0x84 }
  - { offset: 0xDEE53, size: 0x8, addend: 0x0, symName: _fluid_handle_gain, symObjAddr: 0x18A8, symBinAddr: 0x46D60, symSize: 0x90 }
  - { offset: 0xDEF33, size: 0x8, addend: 0x0, symName: _fluid_handle_interp, symObjAddr: 0x1938, symBinAddr: 0x46DF0, symSize: 0x8C }
  - { offset: 0xDF01A, size: 0x8, addend: 0x0, symName: _fluid_handle_interpc, symObjAddr: 0x19C4, symBinAddr: 0x46E7C, symSize: 0xB8 }
  - { offset: 0xDF0FA, size: 0x8, addend: 0x0, symName: _fluid_handle_tuning, symObjAddr: 0x1A7C, symBinAddr: 0x46F34, symSize: 0x15C }
  - { offset: 0xDF25A, size: 0x8, addend: 0x0, symName: _fluid_handle_tune, symObjAddr: 0x1BD8, symBinAddr: 0x47090, symSize: 0x210 }
  - { offset: 0xDF410, size: 0x8, addend: 0x0, symName: _fluid_handle_settuning, symObjAddr: 0x1DE8, symBinAddr: 0x472A0, symSize: 0x1D0 }
  - { offset: 0xDF595, size: 0x8, addend: 0x0, symName: _fluid_handle_resettuning, symObjAddr: 0x1FB8, symBinAddr: 0x47470, symSize: 0xE4 }
  - { offset: 0xDF692, size: 0x8, addend: 0x0, symName: _fluid_handle_tunings, symObjAddr: 0x209C, symBinAddr: 0x47554, symSize: 0xEC }
  - { offset: 0xDF81D, size: 0x8, addend: 0x0, symName: _fluid_handle_dumptuning, symObjAddr: 0x2188, symBinAddr: 0x47640, symSize: 0x204 }
  - { offset: 0xDF9AB, size: 0x8, addend: 0x0, symName: _fluid_handle_set, symObjAddr: 0x238C, symBinAddr: 0x47844, symSize: 0x28C }
  - { offset: 0xDFCCB, size: 0x8, addend: 0x0, symName: _fluid_handle_get, symObjAddr: 0x2618, symBinAddr: 0x47AD0, symSize: 0x164 }
  - { offset: 0xDFE21, size: 0x8, addend: 0x0, symName: _fluid_handle_settings, symObjAddr: 0x277C, symBinAddr: 0x47C34, symSize: 0x58 }
  - { offset: 0xDFEF4, size: 0x8, addend: 0x0, symName: _fluid_handle_settings_iter1, symObjAddr: 0x27D4, symBinAddr: 0x47C8C, symSize: 0x34 }
  - { offset: 0xDFF7E, size: 0x8, addend: 0x0, symName: _fluid_handle_settings_iter2, symObjAddr: 0x2808, symBinAddr: 0x47CC0, symSize: 0x1C4 }
  - { offset: 0xE0145, size: 0x8, addend: 0x0, symName: _fluid_handle_print_option, symObjAddr: 0x29CC, symBinAddr: 0x47E84, symSize: 0x60 }
  - { offset: 0xE01B2, size: 0x8, addend: 0x0, symName: _fluid_handle_info, symObjAddr: 0x2A2C, symBinAddr: 0x47EE4, symSize: 0x40C }
  - { offset: 0xE06B7, size: 0x8, addend: 0x0, symName: _fluid_handle_reset, symObjAddr: 0x2E38, symBinAddr: 0x482F0, symSize: 0x1C }
  - { offset: 0xE0734, size: 0x8, addend: 0x0, symName: _fluid_handle_quit, symObjAddr: 0x2E54, symBinAddr: 0x4830C, symSize: 0x24 }
  - { offset: 0xE0798, size: 0x8, addend: 0x0, symName: _fluid_handle_help, symObjAddr: 0x2E78, symBinAddr: 0x48330, symSize: 0x1A4 }
  - { offset: 0xE0920, size: 0x8, addend: 0x0, symName: _fluid_handle_router_clear, symObjAddr: 0x301C, symBinAddr: 0x484D4, symSize: 0x5C }
  - { offset: 0xE09CF, size: 0x8, addend: 0x0, symName: _fluid_handle_router_default, symObjAddr: 0x3078, symBinAddr: 0x48530, symSize: 0x5C }
  - { offset: 0xE0A7E, size: 0x8, addend: 0x0, symName: _fluid_handle_router_begin, symObjAddr: 0x30D4, symBinAddr: 0x4858C, symSize: 0x160 }
  - { offset: 0xE0BB0, size: 0x8, addend: 0x0, symName: _fluid_handle_router_end, symObjAddr: 0x3234, symBinAddr: 0x486EC, symSize: 0xB0 }
  - { offset: 0xE0C83, size: 0x8, addend: 0x0, symName: _fluid_handle_router_chan, symObjAddr: 0x32E4, symBinAddr: 0x4879C, symSize: 0xCC }
  - { offset: 0xE0D80, size: 0x8, addend: 0x0, symName: _fluid_handle_router_par1, symObjAddr: 0x33B0, symBinAddr: 0x48868, symSize: 0xCC }
  - { offset: 0xE0E7D, size: 0x8, addend: 0x0, symName: _fluid_handle_router_par2, symObjAddr: 0x347C, symBinAddr: 0x48934, symSize: 0xCC }
  - { offset: 0xE0FEB, size: 0x8, addend: 0x0, symName: _fluid_handle_basicchannels, symObjAddr: 0x3548, symBinAddr: 0x48A00, symSize: 0xF0 }
  - { offset: 0xE1324, size: 0x8, addend: 0x0, symName: _check_channels_group_arguments, symObjAddr: 0x4228, symBinAddr: 0x496E0, symSize: 0x114 }
  - { offset: 0xE15BF, size: 0x8, addend: 0x0, symName: _fluid_handle_player_start, symObjAddr: 0x4CF8, symBinAddr: 0x4A09C, symSize: 0x8 }
  - { offset: 0xE16C0, size: 0x8, addend: 0x0, symName: _fluid_handle_player_stop, symObjAddr: 0x4D00, symBinAddr: 0x4A0A4, symSize: 0x88 }
  - { offset: 0xE1800, size: 0x8, addend: 0x0, symName: _fluid_handle_player_continue, symObjAddr: 0x4D88, symBinAddr: 0x4A12C, symSize: 0x1C }
  - { offset: 0xE189A, size: 0x8, addend: 0x0, symName: _fluid_handle_player_seek, symObjAddr: 0x4DA4, symBinAddr: 0x4A148, symSize: 0x8 }
  - { offset: 0xE1921, size: 0x8, addend: 0x0, symName: _fluid_handle_player_next_song, symObjAddr: 0x4DAC, symBinAddr: 0x4A150, symSize: 0x8 }
  - { offset: 0xE19A7, size: 0x8, addend: 0x0, symName: _fluid_handle_player_loop, symObjAddr: 0x4DB4, symBinAddr: 0x4A158, symSize: 0xC0 }
  - { offset: 0xE1AE8, size: 0x8, addend: 0x0, symName: _fluid_handle_player_tempo_int, symObjAddr: 0x4FA8, symBinAddr: 0x4A34C, symSize: 0x8 }
  - { offset: 0xE1B6F, size: 0x8, addend: 0x0, symName: _fluid_handle_player_tempo_bpm, symObjAddr: 0x4FB0, symBinAddr: 0x4A354, symSize: 0x8 }
  - { offset: 0xE1BF5, size: 0x8, addend: 0x0, symName: _fluid_cmd_copy, symObjAddr: 0x4FB8, symBinAddr: 0x4A35C, symSize: 0xA4 }
  - { offset: 0xE1C9F, size: 0x8, addend: 0x0, symName: _new_fluid_cmd_handler, symObjAddr: 0x50A0, symBinAddr: 0x4A400, symSize: 0x30 }
  - { offset: 0xE1D14, size: 0x8, addend: 0x0, symName: _new_fluid_cmd_handler2, symObjAddr: 0x50D0, symBinAddr: 0x4A430, symSize: 0x198 }
  - { offset: 0xE1F80, size: 0x8, addend: 0x0, symName: _fluid_cmd_handler_destroy_hash_value, symObjAddr: 0x5268, symBinAddr: 0x4A5C8, symSize: 0x44 }
  - { offset: 0xE1FAA, size: 0x8, addend: 0x0, symName: _fluid_cmd_handler_destroy_hash_value, symObjAddr: 0x5268, symBinAddr: 0x4A5C8, symSize: 0x44 }
  - { offset: 0xE1FFA, size: 0x8, addend: 0x0, symName: _delete_fluid_cmd_handler, symObjAddr: 0x52E4, symBinAddr: 0x4A60C, symSize: 0x34 }
  - { offset: 0xE209C, size: 0x8, addend: 0x0, symName: _new_fluid_server, symObjAddr: 0x5320, symBinAddr: 0x4A640, symSize: 0x24 }
  - { offset: 0xE2130, size: 0x8, addend: 0x0, symName: _new_fluid_server2, symObjAddr: 0x5344, symBinAddr: 0x4A664, symSize: 0x24 }
  - { offset: 0xE217C, size: 0x8, addend: 0x0, symName: _delete_fluid_server, symObjAddr: 0x5368, symBinAddr: 0x4A688, symSize: 0x4 }
  - { offset: 0xE21A3, size: 0x8, addend: 0x0, symName: _fluid_server_join, symObjAddr: 0x536C, symBinAddr: 0x4A68C, symSize: 0x8 }
  - { offset: 0xE21CF, size: 0x8, addend: 0x0, symName: _fluid_handle_voice_count, symObjAddr: 0x5374, symBinAddr: 0x4A694, symSize: 0x44 }
  - { offset: 0xE22A5, size: 0x8, addend: 0x0, symName: _fluid_file_renderer_settings, symObjAddr: 0x0, symBinAddr: 0x4A6D8, symSize: 0xD4 }
  - { offset: 0xE3402, size: 0x8, addend: 0x0, symName: _fluid_file_renderer_settings, symObjAddr: 0x0, symBinAddr: 0x4A6D8, symSize: 0xD4 }
  - { offset: 0xE354E, size: 0x8, addend: 0x0, symName: _new_fluid_file_renderer, symObjAddr: 0xD4, symBinAddr: 0x4A7AC, symSize: 0x1B0 }
  - { offset: 0xE3792, size: 0x8, addend: 0x0, symName: _delete_fluid_file_renderer, symObjAddr: 0x284, symBinAddr: 0x4A95C, symSize: 0x3C }
  - { offset: 0xE37D7, size: 0x8, addend: 0x0, symName: _fluid_file_set_encoding_quality, symObjAddr: 0x2C0, symBinAddr: 0x4A998, symSize: 0x8 }
  - { offset: 0xE3812, size: 0x8, addend: 0x0, symName: _fluid_file_renderer_process_block, symObjAddr: 0x2C8, symBinAddr: 0x4A9A0, symSize: 0x90 }
  - { offset: 0xE396C, size: 0x8, addend: 0x0, symName: _fluid_ladspa_is_active, symObjAddr: 0x0, symBinAddr: 0x4AA30, symSize: 0x8 }
  - { offset: 0xE397A, size: 0x8, addend: 0x0, symName: _fluid_ladspa_is_active, symObjAddr: 0x0, symBinAddr: 0x4AA30, symSize: 0x8 }
  - { offset: 0xE39A6, size: 0x8, addend: 0x0, symName: _fluid_ladspa_activate, symObjAddr: 0x8, symBinAddr: 0x4AA38, symSize: 0x8 }
  - { offset: 0xE39D2, size: 0x8, addend: 0x0, symName: _fluid_ladspa_deactivate, symObjAddr: 0x10, symBinAddr: 0x4AA40, symSize: 0x8 }
  - { offset: 0xE39FE, size: 0x8, addend: 0x0, symName: _fluid_ladspa_reset, symObjAddr: 0x18, symBinAddr: 0x4AA48, symSize: 0x8 }
  - { offset: 0xE3A2A, size: 0x8, addend: 0x0, symName: _fluid_ladspa_check, symObjAddr: 0x20, symBinAddr: 0x4AA50, symSize: 0x8 }
  - { offset: 0xE3A74, size: 0x8, addend: 0x0, symName: _fluid_ladspa_host_port_exists, symObjAddr: 0x28, symBinAddr: 0x4AA58, symSize: 0x8 }
  - { offset: 0xE3AAF, size: 0x8, addend: 0x0, symName: _fluid_ladspa_add_buffer, symObjAddr: 0x30, symBinAddr: 0x4AA60, symSize: 0x8 }
  - { offset: 0xE3AEA, size: 0x8, addend: 0x0, symName: _fluid_ladspa_buffer_exists, symObjAddr: 0x38, symBinAddr: 0x4AA68, symSize: 0x8 }
  - { offset: 0xE3B25, size: 0x8, addend: 0x0, symName: _fluid_ladspa_add_effect, symObjAddr: 0x40, symBinAddr: 0x4AA70, symSize: 0x8 }
  - { offset: 0xE3B7E, size: 0x8, addend: 0x0, symName: _fluid_ladspa_effect_can_mix, symObjAddr: 0x48, symBinAddr: 0x4AA78, symSize: 0x8 }
  - { offset: 0xE3BB9, size: 0x8, addend: 0x0, symName: _fluid_ladspa_effect_set_mix, symObjAddr: 0x50, symBinAddr: 0x4AA80, symSize: 0x8 }
  - { offset: 0xE3C13, size: 0x8, addend: 0x0, symName: _fluid_ladspa_effect_port_exists, symObjAddr: 0x58, symBinAddr: 0x4AA88, symSize: 0x8 }
  - { offset: 0xE3C5D, size: 0x8, addend: 0x0, symName: _fluid_ladspa_effect_set_control, symObjAddr: 0x60, symBinAddr: 0x4AA90, symSize: 0x8 }
  - { offset: 0xE3CB7, size: 0x8, addend: 0x0, symName: _fluid_ladspa_effect_link, symObjAddr: 0x68, symBinAddr: 0x4AA98, symSize: 0x8 }
...
